(cnumpy.core.multiarray
_reconstruct
p1
(cnumpy
ndarray
p2
(I0
tS'b'
tRp3
(I1
(I179
tcnumpy
dtype
p4
(S'f8'
I0
I1
tRp5
(I3
S'<'
NNNI-1
I-1
I0
tbI00
S'\x00\x00\x00\x00\x00\x00\x00@\xcd;\x7ff\x9e\xa0\x06@\x00\x00\x00\x00\x00\x00\x10@\xa8\xf4\x97\x9bw\xe3\x11@\xcd;\x7ff\x9e\xa0\x16@\x00\x00\x00\x00\x00\x00\x18@S[\xda:XL\x19@\xf3YaD+\xd8\x1c@\x00\x00\x00\x00\x00\x00 @\x07\xed\xaff\x0f~ @\xd9l\xdf\xccv\xf8 @\xa8\xf4\x97\x9bw\xe3!@\x00\x00\x00\x00\x00\x00$@\xf6/\x12_ee$@\xf3\xd9\xa8\xa4h\x8a%@\xcd;\x7ff\x9e\xa0&@\xa2\xa3\xb3\r\xe5R\'@\x00\x00\x00\x00\x00\x00(@9\xdcc\xb3\xbfT(@S[\xda:XL)@\x00\xff\x9f\x99\xcc\x9c)@\xfc\xeeci3\xd5*@\x00\x00\x00\x00\x00\x00,@\xc0\n\x1f\x00\xc6H,@\xf3YaD+\xd8,@\xe9\xfbv \xd5\x1e-@p\xc4\x9d9\x8dv.@htN\x17\xb2=/@\x00\x00\x00\x00\x00\x000@\xd0\xbaa?\xe0\x1f0@\x07\xed\xaff\x0f~0@\xd9l\xdf\xccv\xf80@\xa3\x14\xae\xa8\x87\x161@N\x017\xfac41@\xa8\xf4\x97\x9bw\xe31@\x00\x00\x00\x00\x00\x002@$\xf8\xd9p[\x1c2@\x9a.\x90!hp2@A\x87b\xc62\xde2@~\xc4#,B\xf92@bVc}\x9d\xb23@ST\xaf\x99\x8a\xcc3@\x00\x00\x00\x00\x00\x004@\xf0)#L\x89\x194@\xf6/\x12_ee4@\x88\x80v\xd5\\\x974@7\xf9\xcf\xdao\xe14@6\xd0\xd2x\xa2B5@\xf3\xd9\xa8\xa4h\x8a5@w\x03Is \xa25@\x00\x00\x00\x00\x00\x006@H\xaa*\x8f9\x176@\xd2\xf1}\x82U\\6@\xcd;\x7ff\x9e\xa06@\xeb\x12\xb2\xbb\xb2\xcd6@\xa2\xa3\xb3\r\xe5R7@\xe0\x11<m\xceh7@\x00\x00\x00\x00\x00\x008@&5w\xe2K\x158@lNy\x00\x85*8@9\xdcc\xb3\xbfT8@F\xc3\\\xa8\xc1i8@\x8a\xe3\x07\x1a\x17\xbd8@\xe4\x10\xe4sW\x0f9@S[\xda:XL9@F#O3\xb2t9@\x00\xff\x9f\x99\xcc\x9c9@\x00\x00\x00\x00\x00\x00:@Qf\x99\xcb\xa9\x13:@\xde4\xda\xfeNN:@8H\x9b\x97\xee\xae:@\xfc\xeeci3\xd5:@\xb4\xb8=iA\xe8:@\xef\rI\xf1\xf33;@\xb9e(k\xee\xc8;@\xbc\xfdP\xb5U\xdb;@\x00\x00\x00\x00\x00\x00<@)\x03\xec/C\x12<@\xc0\n\x1f\x00\xc6H<@?*\x98"\xe3l<@\xf7\x80Aq\xb9\xa2<@\xf3YaD+\xd8<@\xe9\xfbv \xd5\x1e=@\xb2\xdb]\xe3\x96\x87=@/\xa4\xe3\\m\xbb=@\x00\x00\x00\x00\x00\x00>@\xaf_\x109\x0c\x11>@[y\xf7F\xf7C>@p\xc4\x9d9\x8dv>@\xc5Bl?W\x87>@\xf2G\x9b\x0e\x18\x98>@\xb3\xa73\xa0`\x0c?@9\xf2\xee\xcc\xd9\x1c?@htN\x17\xb2=?@&\xecIP\x11N?@\'\xf2\x90In\x9f?@\x00\x00\x00\x00\x00\x00@@p`\xff\x00\xfe\x07@@\xd0\xbaa?\xe0\x1f@@v\xa3~{\xce\'@@\x10\xb3]\xc9`G@@\x0f\xab\xa8Q\xb6f@@\x07\xed\xaff\x0f~@@\xaa\xd9\xb1\xd3\x8d\x8d@@\xb9\x93\xe1k\xb0\xa4@@>9\x15\x8cW\xc3@@\xd9l\xdf\xccv\xf8@@\x00\x00\x00\x00\x00\x00A@)\x9ah\xdd\x85\x07A@\xa3\x14\xae\xa8\x87\x16A@f\xee@\x9f\x03\x1eA@N\x017\xfac4A@\xfb\xefg\xc4>CA@\xa8y\x0c\t\xd9vA@\xb9\xbaF\xca+~A@l\xd0\xe82\x1a\xb1A@\xa0\x96\xf4\xe0T\xb8A@\xd5?\x80N\xf3\xcdA@\xa8\xf4\x97\x9bw\xe3A@\x00\x00\x00\x00\x00\x00B@8\xd8\xbc\n\x1b\x07B@$\xf8\xd9p[\x1cB@+\xe5\x8a\xc6\x8f?B@\xbf\x8f+\t\x89[B@\x96`G\xb3\x80bB@\x9a.\x90!hpB@u\x85\x18\x11\xe0\x99B@X(/\x84y\xaeB@5 \x89\xa6\xcd\xc9B@A\x87b\xc62\xdeB@~\xc4#,B\xf9B@\x00\x00\x00\x00\x00\x00C@\xc3\xe7Zp\xbb\x06C@^\x9e\x9f\x85\xdf\x1aC@@\xff7s\x995C@\xc9\xe0>!B<C@VT\xdbd.PC@/vo\xf2\x9ejC@W\xb2\xdb\x1a\x9a\xa5C@bVc}\x9d\xb2C@:\xf0c\xf6\x1b\xb9C@ST\xaf\x99\x8a\xccC@\xf2m\xf7tt\xd9C@Mm\x9d\x8c\xc3\xecC@\x00\x00\x00\x00\x00\x00D@=\xf3\n\x8f\xe6\x1fD@\xcey?\xdc\x9a?D@\x93\xb7|K\xae\x84D@\x88\x80v\xd5\\\x97D@I\xe8[@\x93\x9dD@\xd0Z\x0e\xd2\x03\xcfD@\xbb\x91T\x7f\x17\x06E@u\xa6<oS\x18E@\x10H\x17\x80\x946E@6\xd0\xd2x\xa2BE@\xb1\xe1\xb2\xa5\xa3fE@\xeb\xfb\x12\x98\x8dxE@w\x03Is \xa2E@v\xf8\xd1\xb0\x84\xeeE@\xb4\x83\xd4\x01Z\xf4E@D:\x9d\xaf\xd0\x05F@\x14\xda\xbaX\x1f4F@!\xfc0n\xe2xF@\xcd;\x7ff\x9e\xa0F@\xd9\xd6\x07\xe3\xeb\xabF@\xeb\x12\xb2\xbb\xb2\xcdF@\x1d\xc0\xe2\x05\x90\x05G@E\x85+SaXG@N\xd7z\x91EnG@Y\x0bS#\xd1\x99G@\x89/\xe7L\xa8\nH@&5w\xe2K\x15H@\x0b\x0b=\x95\x1a5H@&\xf9\x01!C\xc2H@\xec\x06\x16x\xe8\xd6H@F#O3\xb2tI@\xf4\xbb\xd6\xb6\xbe~I@|\x86\xe2C),J@\x03\x17\xb7\x19\xbc\xdeJ@'
tbg1
(g2
(I0
tS'b'
tRp6
(I1
(I179
tg4
(S'O8'
I0
I1
tRp7
(I3
S'|'
NNNI-1
I-1
I63
tbI00
(lp8
(lp9
F4.4904381273997487
aF34.057929034423317
aF19.02296324308648
aF68.40433169813322
aF9.5733728687579287
aF49.600385366942248
aF16.692972820356673
aF75.653429839439497
aF4.817716568837497
aF22.148155670146487
aF22.987297168666636
aF19.485609657124968
aF7.2925911390688043
aF8.0952170180224101
aF6.2691820049425928
aF4.9568843778763778
aF20.002519893565545
aF7.3791023017817352
aF15.128922924594647
aF6.2159865664541343
aF6.6922895175196828
aF21.50680484459015
aF59.267396805924498
aF85.324319208846873
aF150
aF5.1381022415516355
aF4.4904381273997487
aF5.5459866898816585
aF7.2925911390688043
aF6.9793637637069033
aF4.8975603878559468
aF9.180984509911406
aF13.115196491106492
aF5.4635787262200068
aF12.07836098258629
aF6.3043309540774146
aF6.2539259219271912
aF5.8352000711084457
aF12.99068694419141
aF4.5569833513568057
aF9.675371928394803
aF42.041170265872481
aF19.711009228655897
aF9.5751334236153411
aF6.8979533475208257
aF7.7256359952653311
aF4.3783650407881112
aF38.831019835328561
aF12.616997902871873
aF5.1555306036543982
aF4.718797705220652
aF32.581693638788842
aF6.2264064375758323
aF10.134572591784547
aF7.0338321912023503
aF8.4114411420988855
aF5.9566255901017442
aF7.1419106244456714
aF4.9993743074291714
aF12.208870597480541
aF27.545461215918039
aF8.8336258645359607
aF36.001918845207967
aF4.2799066295398944
aF14.832741555308345
aF12.145026798669377
aF8.2030906782182882
aF6.9339656915487211
aF9.9885007927103118
aF20.391099740804407
aF20.391099740804407
aF4.8547047390178655
aF6.6382374489629212
aF13.189527409580592
aF15.146137827331557
aF12.138436748857753
aF4.9886831834616316
aF4.3990347538730674
aF30.162319601324558
aF11.75592115383192
aF12.655685338174663
aF4.5404705369750342
aF7.95760450164547
aF8.5258406577058565
aF4.5339340506956134
aF4.323113133217646
aF12.704741937062749
aF6.649289136616602
aF4.8082861313418377
aF12.547031305207298
aF11.340448555057606
aF11.943167894661386
aF7.9416919402678783
aF6.5883449760989095
aF4.1704302516485257
aF5.1846785639113548
aF5.4458701046804414
aF12.048710257502492
aF65.978590169667228
aF14.186154066249802
aF4.1789546942948874
aF62.91514284129218
aF4.6741677723181283
aF6.6483469596483316
aF5.3694533020730972
aF17.348863398963928
aF5.7289936430579758
aF5.16039676354346
aF10.73755677415086
aF5.204920509483685
aF37.642820563849142
aF5.3836556195072163
aF6.1023335532621275
aF5.5357819945526217
aF9.399571523998361
aF103.06089931047973
aF5.1846785639113548
aF6.2933806897293181
aF9.1374197639415122
aF6.8833716269845695
aF32.75152825741349
aF76.388928365226633
aF4.4990306663943045
aF7.0574317854639474
aF33.45016864483469
aF13.457166416506297
aF10.204820404309793
aF9.4043042178116991
aF5.6294445181020336
aF5.1526086007504475
aF6.1764456001049233
aF4.833647729147998
aF73.269757782424335
aF8.0461934874759038
aF5.6042722963373066
aF9.4826650885165868
aF19.566564550604014
aF6.647488258280541
aF11.576381915239203
aF4.4104951079586243
aF30.588494346948337
aF7.7290452930971867
aF4.3410818682715853
aF12.407239408555888
aF4.8115468937957786
aF29.026040726209175
aF87.379981724330008
aF4.309295175399825
aF4.1866480009427676
aF5.8761968568716583
aF11.420859827698921
aF4.449078791856266
aF6.1384631045097144
aF27.186513427258561
aF12.600291703267004
aF8.5473742299144888
aF4.6037328813660849
aF6.8834455985143848
aF5.2591753619376505
aF8.6535039428242158
aF11.732155481142495
aF4.1387579185251298
aF4.0934357324977668
aF18.377444646258056
aF7.2943714912996143
aF10.672721263841964
aF4.3090613587929596
aF6.1339928665425276
aF5.8586294128782299
aF15.040088588941808
aF4.5858199165611211
aF35.105568883658677
aF5.0726781175248732
aF7.8230566187494333
aF17.493906043808181
aF95.357850804677355
aF7.2785047612462108
aF10.096861133850723
aF7.445862862504768
aF25.22580945280324
aF60.541732551762422
aF6.1339928665425276
aF6.3637507698716433
aF12.797491025226826
aF8.9300076097118364
aF5.8665903157695851
aF16.459822235528829
aF39.04832402216762
aF17.724611604113761
aF5.9170315160001223
aF6.574906944794332
aF4.492388981392601
aF4.7141663822491919
aF48.151120074589642
aF4.1088043981007303
aF4.1514225937287819
aF11.711605959405418
aF4.5208411714481969
aF11.711605959405418
aF5.4007859495480943
aF16.996673390566258
aF7.5851968477003524
aF7.4054420884353007
aF5.6125006464111316
aF11.061389212621506
aF8.5799232657637052
aF5.8866626792079728
aF6.567697878762516
aF77.38656350603263
aF4.1250143521376561
aF6.0699521007393642
aF8.6077529601135438
aF7.3193371504037117
aF7.8668568191318258
aF5.6126316885608247
aF5.6713667085310675
aF23.287465048931914
aF7.4263496613200175
aF7.3112775052087677
aF7.549455553904977
aF4.9871903009531229
aF5.6097202728988975
aF20.054224290241514
aF5.4088055010514609
aF49.309494705064921
aF25.357064007461869
aF7.0858075651939316
aF7.3078566101080185
aF9.4096056081839805
aF13.316228109512775
aF7.3078566101080185
aF17.117987538392512
aF4.2862695432801488
aF11.407021002501857
aF4.5546785664164844
aF6.7936198564447778
aF4.4601338289292336
aF4.4579300623957536
aF7.5043217717628892
aF17.504393019959707
aF5.559105582925298
aF4.3985827567402112
aF5.6046492087398292
aF4.8415647132072479
aF28.958351266352167
aF4.0779612095953297
aF21.046818527754084
aF29.59994437404626
aF12.804224172757259
aF11.722024569380295
aF12.102622269445604
aF11.988762903030192
aF7.7680686437105066
aF6.391225018781995
aF7.5448347651837082
aF9.1394425279039275
aF41.67993888838506
aF6.6997467480838395
aF20.819809591196019
aF4.4638093251559923
aF6.9962531413656421
aa(lp10
F8.4234983751172479
aF4.4904381273997487
aF18.250611103063136
aF26.354262354699436
aF20.297213535036516
aF4.4142116151185498
aF10.609362492298011
aF21.50680484459015
aF6.2159865664541343
aF19.225377024118657
aF8.5035360752832787
aF8.5035360752832787
aF8.6341844632526659
aF4.489802502470944
aF30.686343402858263
aF4.2902458291339123
aF6.8964187650054924
aF33.692599030953609
aF75.516255536551725
aF20.916208339978795
aF9.8627099107276592
aF18.268527594175382
aF39.360213098630254
aF39.233080841442728
aF13.341903728859176
aF13.821009242558119
aF4.7065860521961937
aF5.4635787262200068
aF12.07836098258629
aF6.3043309540774146
aF6.2539259219271912
aF9.5751334236153411
aF4.0973330666070122
aF4.3783650407881112
aF4.3781398396641951
aF12.616997902871873
aF4.8470556269017777
aF5.4648961371272122
aF7.145481171354362
aF7.1819848213201283
aF6.9178048706650941
aF8.3451819382077161
aF28.768390771860865
aF10.971737045481527
aF15.286427917240573
aF18.93864488084688
aF11.134880495397335
aF4.0973330666070122
aF8.2030906782182882
aF19.428357402046675
aF17.193697715945447
aF9.6907575346235149
aF27.798269353508921
aF10.02519361942808
aF8.682659717277815
aF27.986433118887518
aF18.913456776145154
aF11.219414594084768
aF4.0272421396273046
aF12.375439404923974
aF4.4127632918794077
aF5.1096275368484783
aF4.1828353732513364
aF4.1828353732513364
aF4.5404705369750342
aF4.9273083568244829
aF4.2402427358667296
aF6.0590626572412276
aF5.3501628611323895
aF11.147563040522328
aF28.696134028013915
aF5.5134563768171176
aF9.7192308039693316
aF11.794060010570988
aF49.911556871624924
aF6.6483469596483316
aF10.397652888261831
aF4.9205685073475465
aF5.9412837123125115
aF8.6811864825574503
aF5.7289936430579758
aF6.5728894594827905
aF5.6723630655315418
aF10.774826561885597
aF4.2979442775687318
aF5.1846785639113548
aF6.2933806897293181
aF41.720534754885733
aF9.1374197639415122
aF6.8833716269845695
aF9.3764638906541578
aF9.0363223331833851
aF14.481597295101032
aF4.8865695921161603
aF5.9445749123397178
aF38.456098181470928
aF11.930962615610298
aF15.961716439651696
aF30.374859208520292
aF7.4574926598899225
aF7.1264478767476334
aF5.652421067002888
aF4.9204689754058677
aF4.401056433013224
aF4.1007537822726476
aF5.1526086007504475
aF9.3061835969054414
aF4.4793152875927973
aF30.184724902391075
aF30.719073110529308
aF5.0992227395818333
aF16.855581603399813
aF5.2301308420175481
aF4.8681785845356131
aF5.2462671245454366
aF8.7363273212404664
aF4.683129724663587
aF6.1764456001049233
aF44.509427962111516
aF4.309295175399825
aF45.83930920466365
aF7.1074469608913375
aF10.121962985379101
aF5.0992227395818333
aF78.052636600357857
aF7.9210787422848554
aF4.3329679903060025
aF6.6959357234987351
aF4.6037328813660849
aF8.0529988427152119
aF10.386257893377589
aF6.3384600522888466
aF44.545288061471922
aF26.870053787135276
aF10.205210542006085
aF5.589214723761188
aF28.96081058832366
aF7.6169025621691873
aF11.168652683390704
aF16.185507854375288
aF4.6851135665127828
aF21.385752201019152
aF5.3177759401019813
aF4.9924526704011072
aF5.4647860783391948
aF11.20899333230355
aF5.0488139168165276
aF11.455823621180016
aF4.6481452837032577
aF5.0528979762528579
aF6.222805120308152
aF10.386257893377589
aF44.545288061471922
aF7.2785047612462108
aF8.6535039428242158
aF5.8646985085342322
aF5.9644927971953017
aF8.9662542554594076
aF8.5969026388739991
aF18.444422631854266
aF7.16682625613862
aF8.9300076097118364
aF5.8665903157695851
aF4.0911732300024255
aF4.861518762867135
aF9.7969304364840184
aF20.998871128431588
aF58.078664296364593
aF6.7358222625976083
aF7.641701154811301
aF4.275385439876672
aF8.9300076097118364
aF5.084861768882277
aF42.869855585840952
aF5.5515010162339777
aF7.0442613356950972
aF9.4604251816064533
aF11.354916246434932
aF35.796591464387504
aF14.192095059086938
aF4.9044000896074351
aF4.7141663822491919
aF39.603722039481141
aF4.9579012305575958
aF4.6568035606419755
aF5.3506593083642997
aF5.7360438375701364
aF17.958181807813034
aF5.8209609987283528
aF6.2187226300260647
aF6.1899657754918564
aF11.752932011653655
aF4.1661495343337807
aF5.6097202728988975
aF5.6097202728988975
aF4.1841488813051626
aF4.8092485957206534
aF6.792609815460338
aF21.078703345689497
aF39.550303322881504
aF18.300960933301212
aF9.4453418667602129
aF4.1001689371892382
aF6.5532045878023126
aF7.2195505029204838
aF13.159348890867356
aF5.0194326354770737
aF10.893590001496605
aF4.4579300623957536
aF19.82191263779972
aF4.7843663753397649
aF4.1769825955050806
aF9.781954508008738
aF6.6908563815421616
aF4.5033195329102256
aF11.982618899371715
aF10.369510113217686
aF4.0843691148304977
aF5.4244904558799618
aF12.472436250372297
aF33.107471832201824
aF6.7202122226689625
aF7.8811164687073472
aF6.4960949369310512
aF7.5224874014167114
aF9.0854542341880329
aF4.4831366512470225
aF44.163377628839442
aF7.9720213168231169
aa(lp11
F5.03908401460167
aF32.449590904889945
aF5.0450956664893898
aF18.590561083097342
aF5.4392556050580483
aF6.8677461908060025
aF12.973358679310905
aF8.2786653746782974
aF4.2872984110305623
aF7.5733629822506998
aF4.4142116151185498
aF7.3791023017817352
aF6.6922895175196828
aF4.3073566046681009
aF9.8955361125048711
aF29.75160721818358
aF24.858402673168541
aF4.9220433959057175
aF4.3596988587708818
aF4.8872121843686873
aF38.307800112145316
aF6.6969498553657587
aF4.0065028485850291
aF4.1677338151445582
aF9.2227822969202009
aF9.6010805882931649
aF4.3781398396641951
aF6.21317150280953
aF4.3718651564154776
aF4.1399567641755795
aF6.458148413936641
aF6.2264064375758323
aF6.6922895175196828
aF4.6901555330079674
aF5.8515191731453733
aF6.5793867985178913
aF4.1439900253290887
aF6.783645460540205
aF6.783645460540205
aF8.4868116539147991
aF6.7361319976453924
aF12.145026798669377
aF6.54864346796208
aF9.5253266605455735
aF6.5550322540408814
aF6.4717271157280294
aF13.013205803906231
aF4.3030774134057737
aF5.3594770010428476
aF70.593705288795377
aF5.7084024117077803
aF4.9658969129094714
aF18.001501373178115
aF131.16620072146091
aF4.5404705369750342
aF6.9178048706650941
aF9.9458509974887193
aF11.219414594084768
aF7.4800624857147255
aF13.567460047236025
aF7.4551928324495691
aF11.943167894661386
aF5.7438123924762579
aF6.7005128020794444
aF9.820897449939693
aF8.710555503067944
aF5.4458701046804414
aF4.5339340506956134
aF12.846545798550142
aF4.020039559149879
aF4.2850668219989672
aF5.1846785639113548
aF4.4680947792554022
aF4.7063086511773236
aF4.6218153675627178
aF4.0860672828212472
aF6.1414868162086975
aF10.300074679701543
aF9.0363890364111796
aF11.324084960675521
aF5.5357819945526217
aF22.395905505095058
aF5.4028994582672922
aF6.3922160626555637
aF4.4990306663943045
aF5.0618055394630446
aF12.834702633297409
aF5.9932068648013797
aF8.9466547824405467
aF10.564832567403117
aF4.4990306663943045
aF5.9932068648013797
aF7.1343291237730995
aF4.6046379267249362
aF4.4793152875927973
aF4.3676663285360746
aF5.9445749123397178
aF6.647488258280541
aF5.2347626833122902
aF17.706931736864234
aF13.759792049651139
aF5.7510288996606107
aF4.207143459861868
aF5.1526086007504475
aF8.3760384226095965
aF6.73092226816199
aF23.972962699676771
aF4.0084309125830941
aF7.7290452930971867
aF5.109138588028074
aF5.204920509483685
aF5.0128882303428099
aF6.2982328777905963
aF26.259597869761663
aF7.9061422029197104
aF4.7442646196487885
aF4.8681785845356131
aF4.1178016999797364
aF46.364317936556603
aF5.589214723761188
aF5.1526086007504475
aF6.1764456001049233
aF11.796770392116345
aF6.1408753952917827
aF4.0561051808090554
aF22.010089479283309
aF4.3076286855090444
aF12.586475388458968
aF53.821589683076191
aF4.6419501366579254
aF5.4028994582672922
aF13.778632824044792
aF5.2591753619376505
aF21.385752201019152
aF4.1387579185251298
aF7.1058069336390446
aF6.187173169946746
aF90.875197793437536
aF4.9363834061851293
aF14.026202785987493
aF5.7359486485040918
aF4.0175920455728651
aF75.424103617489706
aF43.296235653222993
aF6.8834455985143848
aF4.8332779891117283
aF14.141274123196041
aF4.4157592464765756
aF7.9498933082106333
aF18.631923190942523
aF18.605129892274324
aF12.295620035882479
aF15.060882115358979
aF8.6123557846168382
aF5.5552093003309508
aF8.9300076097118364
aF7.1541752830272429
aF8.0461934874759038
aF6.0221911586467911
aF11.455823621180016
aF19.973589927288867
aF10.496996206389539
aF7.0607861874312619
aF80.147950884502308
aF66.611932251305404
aF8.1041382085098235
aF4.6488495065468811
aF5.6455914614077329
aF5.2400833142894498
aF4.275385439876672
aF8.6341990054712312
aF4.7883121431033739
aF5.229117538352547
aF4.4451357536862872
aF16.656872006178062
aF4.9579012305575958
aF11.958475808914422
aF6.574906944794332
aF10.013171117401516
aF13.61533851632295
aF5.8727611288460047
aF5.1855719460705672
aF17.232269583473126
aF6.9737376725734848
aF5.4910754221847498
aF73.352018919333901
aF4.0886469856074115
aF4.1598207871003297
aF4.6061571452314922
aF5.1428709819333704
aF10.215727493796408
aF17.117987538392512
aF4.5277456506330509
aF4.4528176226754965
aF29.297567988548877
aF65.647041871726103
aF4.4538000980169841
aF8.4312554116345098
aF4.3058962977915627
aF11.180809906728513
aF4.5033195329102256
aF4.4720742718424162
aF4.6189302317912801
aF6.1749222604947818
aF6.6665920005108319
aF4.1534711455665807
aF6.0857120856134728
aF6.2460480598724075
aF15.322280467291421
aa(lp12
F8.7053829844830659
aF13.214177471204906
aF8.4948063008971246
aF4.3073566046681009
aF8.4937522494294342
aF12.731251083978485
aF8.6341844632526659
aF5.03908401460167
aF20.287761024502672
aF18.250611103063136
aF5.9339641592411212
aF4.9709902651698599
aF33.79945149162662
aF5.4487544934415837
aF4.3073566046681009
aF9.8955361125048711
aF19.225377024118657
aF8.5035360752832787
aF7.2870376467835083
aF6.1053637362466588
aF5.5689549836079788
aF19.364677208844142
aF9.3305207652577309
aF10.619896349252627
aF11.645158266335855
aF4.3814170886914496
aF4.489802502470944
aF6.3039008602608462
aF12.991276348585345
aF5.3834630335887965
aF18.224389747884914
aF5.8653051099548712
aF6.135412376658536
aF11.166275580939413
aF5.0450956664893898
aF11.183939942429276
aF4.8975603878559468
aF8.5747264657103699
aF5.1607799120918827
aF22.286736570756979
aF6.4698550644345971
aF4.2054784441077686
aF5.3403325946385394
aF7.5609451437149033
aF8.85094806755977
aF7.145481171354362
aF8.4114411420988855
aF9.750105772328709
aF28.876839368741841
aF6.588444849845331
aF4.0439009601409026
aF7.1217868269388163
aF4.1505238134517981
aF6.21317150280953
aF4.3718651564154776
aF4.5569833513568057
aF5.8579142698664697
aF7.671731150675777
aF19.34209406503064
aF32.092501013529244
aF19.711009228655897
aF7.3529537024735276
aF4.6162077903030081
aF6.6627371827174695
aF13.583918015079771
aF5.7470995054425345
aF7.7256359952653311
aF6.8619539729527332
aF7.7256359952653311
aF18.344703438641961
aF4.8470556269017777
aF5.4648961371272122
aF5.4082839852286284
aF4.3781398396641951
aF20.382824718447864
aF6.6922895175196828
aF4.703039077868894
aF4.9883211024027361
aF4.5569833513568057
aF10.15417384606846
aF4.5569833513568057
aF12.042079121300544
aF8.8336258645359607
aF21.137772665233769
aF17.513802552497111
aF5.804227082585081
aF10.846370953828966
aF4.2965465331733146
aF15.560769464159101
aF5.5240074592378363
aF5.4103052600533204
aF5.4846603199820976
aF10.672362870994448
aF20.391099740804407
aF5.8352000711084457
aF9.9885007927103118
aF7.0519399554688604
aF4.5569833513568057
aF28.409709527652332
aF18.229518588149148
aF5.5984812874071963
aF9.6576275589904128
aF6.6382374489629212
aF24.720249202624053
aF14.675421843382452
aF17.65194965853599
aF8.4193460254653729
aF14.263159127729779
aF4.4800800079880574
aF9.3646790603690135
aF5.3014161319102371
aF4.1228604716895205
aF6.353189382548976
aF7.0517314338602404
aF16.000170181150466
aF21.266729511937047
aF74.459957589254557
aF6.2264064375758323
aF4.6117472070852576
aF6.6566274835513752
aF10.136485280404656
aF6.9215610678705701
aF4.0624020518422128
aF5.0238612756847658
aF4.7063086511773236
aF6.8025160008759755
aF8.6954629206690441
aF4.0084309125830941
aF7.7533787627873494
aF4.9570489812283816
aF4.7140778836410719
aF5.9445749123397178
aF10.73755677415086
aF11.506690303110574
aF4.4127632918794077
aF5.1096275368484783
aF108.05589080373952
aF26.331917076831203
aF5.1846785639113548
aF45.359872026397944
aF6.602978988373053
aF4.3578517276968682
aF11.15484746313129
aF4.3695564590178719
aF8.3134818251359306
aF6.6404053443259405
aF10.253930067318009
aF12.256498368491769
aF25.552503972599212
aF39.086962061766357
aF10.300074679701543
aF6.8454198119600775
aF4.7525679965316741
aF4.2979442775687318
aF5.4028994582672922
aF8.0864310210420314
aF8.3535124434228649
aF15.626121492417305
aF12.834702633297409
aF5.9932068648013797
aF8.9466547824405467
aF5.2989517398860784
aF8.2875701799907233
aF4.3844899833388737
aF6.3922160626555637
aF4.4990306663943045
aF4.5906902645990044
aF6.0352262637958773
aF7.1712710124273471
aF13.206595790272601
aF6.1824706749503662
aF4.3984027184750403
aF5.9445749123397178
aF15.878151629910292
aF33.45016864483469
aF6.9304691465282904
aF4.8865695921161603
aF17.705200370063665
aF9.2725779618650108
aF7.4575729585378028
aF4.4361999975226354
aF7.4574926598899225
aF16.856051256237372
aF5.578618332377772
aF5.652421067002888
aF4.4714859397566329
aF5.7370942344698221
aF4.3220985262686042
aF29.829706833994969
aF10.236699202767809
aF4.647705913559264
aF28.205333686218744
aF17.105928249247448
aF23.463079836644862
aF4.8865695921161603
aF7.5835089518856762
aF7.3220090795698667
aF11.45941942078538
aF5.0128882303428099
aF43.841024685580905
aF7.1506393695960497
aF7.1489363396471255
aF14.602861024589913
aF7.7217750680169885
aF13.030226101077105
aF6.8242891855221828
aF4.093447046506256
aF51.123491788828332
aF9.3977879256317749
aF26.899178954625135
aF44.222826983827979
aF12.27356940602759
aF4.1007537822726476
aF5.5766051869914861
aF5.589214723761188
aF5.1582130655549463
aF5.1526086007504475
aF8.2875701799907233
aF6.1764456001049233
aF4.833647729147998
aF15.084460079745073
aF22.017968370197984
aF12.345629975582526
aF4.7543679613872598
aF6.187173169946746
aF4.6644279926454431
aF5.1989214423971504
aF5.1989214423971504
aF4.9097596205059801
aF11.420859827698921
aF7.4288892525580508
aF20.112928097824536
aF10.838072230355813
aF6.1384631045097144
aF8.6417188396258098
aF8.1484700722229775
aF5.7370942344698221
aF7.0547797290123597
aF4.093447046506256
aF4.6851135665127828
aF4.1387579185251298
aF6.715393480558447
aF56.651212888436049
aF4.2499712510933065
aF12.345629975582526
aF5.5071345978536312
aF4.9470194089511352
aF7.4575729585378028
aF5.0259787922356338
aF6.1161686930580714
aF8.4556285213189284
aF7.939865998042535
aF13.531020810561273
aF17.493906043808181
aF16.773192653284553
aF4.1387579185251298
aF6.4688414161856684
aF15.963951156715293
aF4.8520597794945637
aF7.4978477180847705
aF4.9924526704011072
aF4.6644279926454431
aF5.6882210696961977
aF4.9363834061851293
aF6.1339928665425276
aF4.0505403175352228
aF11.420859827698921
aF4.2537594542742596
aF11.477037586497289
aF20.732884749819689
aF9.0229779093547791
aF33.911006986549296
aF17.828105689252325
aF5.8665903157695851
aF9.9104090075327029
aF23.530729967321648
aF6.9056191363994941
aF4.0194068495118529
aF16.093860647871328
aF23.081147153022584
aF6.2821659356179751
aF4.3921172390394361
aF8.8032024541345351
aF4.001891365160418
aF10.102270192630748
aF5.5000346537943301
aF5.5000346537943301
aF20.831770907105692
aF11.477037586497289
aF4.8332779891117283
aF4.9682552542238767
aF5.6122457176410876
aF8.4226486430992651
aF4.2381263968504967
aF7.5504051225464348
aF8.6832108149963556
aF8.5200576017159193
aF4.5208411714481969
aF18.784108039269903
aF9.2199020606804822
aF7.2067284279284394
aF12.14753644885468
aF5.191151512766865
aF17.515250624282569
aF5.4007859495480943
aF19.88220254709714
aF17.143403038675558
aF5.8228992175008898
aF7.0149063809896433
aF10.619555156753293
aF4.5729758799171378
aF7.5224605362746226
aF7.570406583453444
aF7.6952169390599892
aF4.4837129576515906
aF11.752932011653655
aF5.2222834815003409
aF4.9770101632481456
aF5.590957988614166
aF11.552541927836927
aF4.5060765633235107
aF44.369486807101865
aF5.2282266149038499
aF4.9579012305575958
aF4.1251249693233483
aF9.7293158362253536
aF4.0654966342856369
aF7.3193371504037117
aF4.4649341198958723
aF13.225749040303242
aF5.5515010162339777
aF9.1333417059714606
aF4.1661495343337807
aF6.8455724015641763
aF5.7939945970028504
aF11.556027660292731
aF8.6473391549784147
aF41.617451777379962
aF4.92118108736544
aF8.5686350591969642
aF6.685732857671665
aF5.6097202728988975
aF27.711094927634093
aF4.6829739556651759
aF28.573014326825131
aF4.6829739556651759
aF4.8092485957206534
aF4.7414237056337498
aF18.247754572533239
aF10.557872805034748
aF49.836315498460806
aF7.1898818257220825
aF12.817214575746775
aF9.9765278693597281
aF7.493124290448776
aF4.0177363071854586
aF18.316474841659328
aF27.849359131097216
aF5.8209609987283528
aF17.754643394235089
aF4.0323096215268315
aF4.2327401551503812
aF4.1861561790517783
aF15.210229093992282
aF9.151969780078927
aF9.0159579840607478
aF6.6547972090447161
aF9.9413165534007533
aF4.1799946693520269
aF25.88639985301846
aF7.0996442326444349
aF5.3716738728421092
aF5.0205182254403127
aF10.306091527500186
aF5.7360438375701364
aF10.866089114465737
aF8.7625579048566422
aF7.0131594368882588
aF5.0791164501472963
aF4.934160334250695
aF5.2230105269558607
aF18.008996019857989
aF22.044611631291772
aF14.919773345606799
aF8.4442379283746476
aF13.671549960017217
aF8.4442379283746476
aF5.8959604421259302
aF5.4897192426438011
aF5.6085928426381884
aF4.1016115311865065
aF5.0800590985504357
aF5.4908151376047662
aF5.1681597780726065
aF65.457473732064813
aF9.3950912352345313
aF6.4556178561540492
aF6.9466408040173775
aF10.893590001496605
aF21.26328829612337
aF16.250900382798278
aF7.2131956585134063
aF21.046818527754084
aF35.63554270336715
aF4.0115088824455469
aF5.7637475889267682
aF4.0403729013569194
aF6.7384610136086849
aF13.051916932215644
aF5.5202432882593158
aF11.703942965587885
aF7.6366921200025715
aF5.8959604421259302
aF6.2145693066172925
aF6.3126862211886134
aF6.9557157557483045
aF6.0857120856134728
aF4.4077480256105233
aF11.290313010099709
aF9.7950915125285327
aF9.4106715588602938
aF7.1777535862904926
aF13.92865242297249
aa(lp13
F9.8955361125048711
aF4.4904381273997487
aF4.9572202617387671
aF22.054837027124478
aF4.0760750783532842
aF4.5518240810145514
aF5.1110135959263516
aF4.2872984110305623
aF9.750105772328709
aF4.6044645336158823
aF5.8352000711084457
aF6.7579555625481564
aF9.5751334236153411
aF13.583918015079771
aF4.2284891895923131
aF13.821009242558119
aF6.2175451185672372
aF36.765856124150687
aF21.127744054110082
aF4.9883211024027361
aF8.8336258645359607
aF8.4868116539147991
aF25.888706105351488
aF5.3387688397755966
aF4.8470556269017777
aF9.3554166485982364
aF66.892437768320747
aF5.7084024117077803
aF4.9658969129094714
aF33.134033131242575
aF5.3594770010428476
aF4.3718651564154776
aF5.455602100246665
aF4.9320012876350177
aF9.6907575346235149
aF10.537155234800043
aF6.7391277329253967
aF12.412169716261175
aF38.831019835328561
aF6.0540921230348648
aF6.8780471764283249
aF4.9645373503925754
aF9.0905261853713615
aF19.305460306507271
aF5.8515191731453733
aF10.028821449198887
aF5.1884730880167211
aF12.138436748857753
aF10.136485280404656
aF6.2425222099553306
aF4.9320012876350177
aF5.5117850645490911
aF38.543479541483265
aF13.158775215307134
aF13.101308520499678
aF5.3836556195072163
aF5.652421067002888
aF4.6785741958615858
aF17.377193645645541
aF4.4560766540420502
aF17.165554563242992
aF9.7251344841125444
aF18.05260380751379
aF4.6046379267249362
aF4.3223564866471733
aF84.657268728477447
aF4.4499846990741316
aF4.141959132448223
aF6.5225802316479076
aF18.822660911233683
aF23.296472292198672
aF10.372856175941857
aF4.8865695921161603
aF9.9567616453383803
aF7.4425875805254833
aF9.1405613325576844
aF6.4089242133451165
aF4.4714859397566329
aF5.7370942344698221
aF6.715393480558447
aF6.3525566280016221
aF7.4057949895307189
aF4.6046379267249362
aF6.0804156981683875
aF4.6644279926454431
aF5.1989214423971504
aF5.7370942344698221
aF7.0547797290123597
aF5.7510288996606107
aF4.0913543816554636
aF4.1459796246158334
aF12.161254212291073
aF4.0084309125830941
aF9.2912016075458155
aF6.1339928665425276
aF12.017717486859951
aF38.537061800951264
aF4.093447046506256
aF6.9986697261361002
aF12.061965903131501
aF4.7086903863475555
aF6.3000724877834102
aF5.191151512766865
aF4.8422169327991682
aF11.131042866844751
aF5.1989214423971504
aF24.941286369021668
aF5.4647860783391948
aF12.586475388458968
aF17.828105689252325
aF12.396288890609583
aF6.8478836720439453
aF6.0027080841717115
aF7.6903309124729589
aF4.001891365160418
aF24.005107513493783
aF14.862489871498596
aF5.5000346537943301
aF5.7267860836679176
aF5.1736995062180284
aF5.0367051512026251
aF5.8926062396517978
aF6.033892224868481
aF6.2810111733585741
aF10.484331237553391
aF6.8024713572490185
aF6.8451329582681097
aF11.173568246541464
aF11.346328190989681
aF4.0669216846056884
aF5.6270927570220266
aF5.1415298119777475
aF8.9891802211186089
aF4.1505276806877021
aF5.4915581203922272
aF7.9305626219561418
aF7.8299388341691696
aF4.1841488813051626
aF36.124464236368567
aF4.1088043981007303
aF25.357064007461869
aF18.863550291753427
aF5.9754211780474629
aF5.0867188415545854
aF5.7826337226130136
aF4.9392035542348935
aF5.5149718943104489
aF4.5621839715389001
aF5.2169860139801756
aF5.6104748967009304
aF20.922714087691155
aF10.557731694766282
aF4.1250143521376561
aF4.2397914118235178
aF6.4380187009006846
aF5.0898750443578535
aF5.1121383060082763
aF5.7939945970028504
aF4.2316903533504018
aF4.8844394836026659
aF4.3062873355637521
aF4.1047973319149946
aF4.7312193354775047
aF12.322886656887846
aF8.6291801157961174
aF6.6519344832354648
aF6.7338686150442593
aF5.7189038132029566
aF8.1763681101799648
aF6.468939892263478
aF5.6104748967009304
aF6.6924546925282531
aF4.2240308825765567
aF30.475533854188914
aF20.811527760688222
aF4.0320798643485887
aF19.644016073746144
aF108.2110680943637
aF12.093409167142596
aa(lp14
F5.660068699933376
aF13.928264056270663
aF8.2786653746782974
aF4.2284891895923131
aF5.1811206680339978
aF29.75160721818358
aF24.858402673168541
aF5.252272369644345
aF6.0883238522591085
aF26.998143399088477
aF4.0065028485850291
aF24.248180447132366
aF4.9658969129094714
aF10.672362870994448
aF6.690261939916283
aF8.4976313455877914
aF4.4642081928918245
aF21.697876374454392
aF5.3959879270929818
aF12.886448596283188
aF4.5518240810145514
aF5.8567872691698994
aF8.2681484512628174
aF21.137772665233769
aF4.611895065981777
aF19.656313910419058
aF15.146137827331557
aF13.20134705464416
aF14.993958501960805
aF5.3318699483035914
aF13.189252525298485
aF19.361553712772587
aF5.7026811268056434
aF25.669613814801139
aF6.6965678222030363
aF5.9295966328029959
aF4.2867187773281046
aF7.4854401786702596
aF5.1526086007504475
aF4.7052191760961364
aF4.0703149385397381
aF13.495321374153278
aF9.3261385189776149
aF6.4089242133451165
aF6.0105243024644892
aF10.997684027977051
aF5.9932068648013797
aF7.1343291237730995
aF4.3220985262686042
aF4.4449678102013479
aF20.996025852028861
aF36.671814623044028
aF9.2725779618650108
aF9.3301393753106652
aF4.7488044511606518
aF9.078328803468608
aF7.9634914955251048
aF14.360005028802462
aF6.1764456001049233
aF32.737483289281556
aF4.5441297819413524
aF6.5732617584544997
aF17.56663390820799
aF4.3566734878651587
aF26.259597869761663
aF5.2898869366469796
aF4.5193362361419602
aF4.1178016999797364
aF4.207143459861868
aF5.589214723761188
aF7.226012768049543
aF4.1564259038065359
aF11.420859827698921
aF8.0382196799406103
aF10.162855642531468
aF5.589214723761188
aF5.1526086007504475
aF7.0130594101688501
aF34.704053224374661
aF7.4574926598899225
aF19.566564550604014
aF21.443206775618723
aF7.3884685214555059
aF4.0505403175352228
aF15.030325564832324
aF13.860365451047002
aF13.778632824044792
aF6.4688414161856684
aF15.963951156715293
aF5.4230241201651168
aF10.071151280278158
aF7.2250781138677524
aF4.0046153355134635
aF6.647488258280541
aF4.2499712510933065
aF24.144981662695656
aF4.2537594542742596
aF5.9373675464088933
aF5.494634999232602
aF11.455823621180016
aF5.6356883501548509
aF8.0934619199670692
aF4.0561051808090554
aF9.2559258749966133
aF4.6746954906856786
aF5.6122457176410876
aF4.7384785849928761
aF4.0241200683160514
aF7.445862862504768
aF4.6162733516209302
aF10.962562715933046
aF4.7141663822491919
aF48.151120074589642
aF4.1088043981007303
aF4.3187363076641816
aF13.644180730270563
aF4.9579012305575958
aF6.9423946497467455
aF12.797491025226826
aF12.832916119401233
aF6.9379682461583911
aF4.2370492102773625
aF8.2810842029624325
aF11.069919806275848
aF6.9737376725734848
aF4.0360583963607723
aF7.9305626219561418
aF7.3214228601537705
aF13.759624529129532
aF4.1661495343337807
aF5.7939945970028504
aF7.6398828232812122
aF5.533610063761202
aF4.2316903533504018
aF4.7414237056337498
aF9.9765278693597281
aF11.611063046469319
aF9.653236269597528
aF7.493124290448776
aF6.6110141756528478
aF7.2195505029204838
aF10.272917716883391
aF6.3590443902276519
aF4.9333793702727231
aF9.5125347675340564
aF4.1799946693520269
aF5.0393645385375621
aF65.643268245073017
aF9.2016827763181634
aF11.976091979535042
aF9.1005495526316054
aF11.752932011653655
aF8.4713960063991216
aF5.3725384300648358
aF7.9926067138645607
aF5.3725384300648358
aF5.5686906438679813
aF5.7360438375701364
aF7.3895894576951662
aF5.311672047969509
aF22.552591740107665
aF4.6829739556651759
aF5.8403177247181475
aF36.831153999825169
aF16.023650360835219
aF4.2171123630371028
aF4.0016957327804903
aF19.6387611787517
aF7.0131594368882588
aF5.521993442836191
aa(lp15
F4.0595971007454423
aF7.3990651783428518
aF4.8902588439765964
aF7.2870376467835083
aF6.1053637362466588
aF10.818479983428894
aF5.6894807620487668
aF4.4948596715528666
aF6.4738463284523036
aF4.2872984110305623
aF6.2742958457381981
aF4.9350149059718262
aF5.057627880152225
aF4.3002965488300617
aF4.1677338151445582
aF5.2169316744782748
aF4.3337248184546127
aF10.383020875259527
aF20.130296710062165
aF5.5960385121707077
aF9.2901819284939222
aF5.5794634498573714
aF4.9686470005722576
aF26.139617612753113
aF9.8955361125048711
aF18.743233210561158
aF4.5581918979317635
aF4.0065028485850291
aF7.9896301716854623
aF7.4800624857147255
aF17.910511832495338
aF6.3486970990602742
aF8.7895530320043633
aF10.991817587427256
aF4.3783650407881112
aF7.1522398446178101
aF9.9325904542867711
aF4.1433835951050106
aF37.468928618778072
aF16.549935881537408
aF7.6758796334830484
aF17.254268942202053
aF4.4592390181673842
aF5.0510927459344543
aF11.131410491308721
aF7.1217868269388163
aF8.8336258645359607
aF19.656313910419058
aF15.175600387659202
aF4.0517471688057114
aF4.2965465331733146
aF4.6651233219192889
aF5.9833131247355666
aF11.011956484637025
aF12.964938544192918
aF4.3577903515659955
aF9.3809780268469858
aF4.7560953357337183
aF5.7438123924762579
aF7.0561958825986295
aF16.277686084857152
aF16.788996489911767
aF5.020774959605518
aF8.5729571851317132
aF13.567460047236025
aF8.9921653597073146
aF8.3438845329467597
aF11.60046840957208
aF4.1101037257036239
aF4.3126275896596695
aF5.4647965911218535
aF10.133222662385364
aF10.134572591784547
aF4.8470556269017777
aF5.4648961371272122
aF8.2030906782182882
aF4.5769403585353956
aF7.2524247438885681
aF31.144289264416727
aF7.95760450164547
aF4.9273083568244829
aF4.9273083568244829
aF4.2098392268786426
aF18.433467261828962
aF4.9570489812283816
aF4.9570489812283816
aF4.9425765584995975
aF9.9499618277744233
aF4.1866480009427676
aF4.9886831834616316
aF7.4854401786702596
aF6.602978988373053
aF5.1846785639113548
aF16.053751951981496
aF8.1176705823301631
aF7.1577434276754133
aF8.3451819382077161
aF4.4512447357936509
aF4.9218809524096514
aF11.219414594084768
aF8.1336815771541353
aF10.253930067318009
aF5.9445749123397178
aF38.50662826983401
aF4.9425765584995975
aF7.1390287244209922
aF9.3261385189776149
aF8.1573965900373935
aF6.2858492698772181
aF6.2858492698772181
aF9.0182112689828102
aF7.5329209740634582
aF7.79892554243294
aF4.6218153675627178
aF5.2989517398860784
aF8.2875701799907233
aF13.009652473881609
aF5.2989517398860784
aF6.1510077246925192
aF4.1289580536450643
aF6.4646706319897191
aF5.5134563768171176
aF4.8865695921161603
aF5.3483913977922271
aF7.6029762103177063
aF4.2108103645221604
aF7.3370019776383941
aF6.7920847655176715
aF7.95760450164547
aF8.2213633557830335
aF4.0778610774472952
aF6.3862865777335855
aF15.972205246703499
aF5.578618332377772
aF4.8002130559855232
aF6.1764456001049233
aF4.4714859397566329
aF5.7370942344698221
aF8.5250220354968178
aF7.7512069207921996
aF8.3760384226095965
aF4.3220985262686042
aF4.0084309125830941
aF6.6404053443259405
aF6.9902571123958666
aF6.9304691465282904
aF14.192310419551717
aF11.579632933571418
aF6.647488258280541
aF13.650652550007869
aF16.855581603399813
aF6.8735100193849235
aF6.8242891855221828
aF6.5883449760989095
aF4.0913543816554636
aF49.268601814383246
aF4.3427126812379342
aF6.1764456001049233
aF5.1526086007504475
aF4.5050937582864208
aF10.121962985379101
aF5.1157517012852622
aF15.567373154505539
aF5.1030902502303235
aF6.9535709499314233
aF23.296472292198672
aF5.109138588028074
aF6.6965678222030363
aF8.0538623743898086
aF4.2894653787354855
aF7.0136366331073106
aF17.051077265660375
aF25.322585968537691
aF5.4028994582672922
aF10.386257893377589
aF8.0382196799406103
aF7.6596401489748445
aF4.0913543816554636
aF12.215020580536304
aF5.1526086007504475
aF26.416483044383938
aF8.3736079618413441
aF4.5050937582864208
aF4.1404092596102409
aF14.569521912277722
aF26.987033635237026
aF6.1926307176018405
aF4.1655633172194797
aF4.0175920455728651
aF9.2726759644561483
aF6.6636406859158797
aF32.737483289281556
aF10.096861133850723
aF4.4174591806183869
aF20.198333434163171
aF4.2227828612838891
aF4.8520597794945637
aF13.617146334513905
aF5.9974774552360381
aF5.6882210696961977
aF5.0480364959628119
aF6.4226734366947795
aF6.6973255945091239
aF4.0505403175352228
aF5.3054885085157792
aF9.1405613325576844
aF4.4616689356845711
aF19.031907958306803
aF8.5853430704616471
aF8.0926665678813379
aF4.4785090875439124
aF8.1384972496913264
aF5.7851252123323036
aF5.4582184087687295
aF16.142795682496484
aF12.659854019169913
aF5.7657994687755831
aF8.0934619199670692
aF23.271816256190917
aF10.036110618987532
aF14.834751672139717
aF5.2614782804995599
aF4.0683824178062338
aF5.9170315160001223
aF22.481498138158035
aF6.0703360012886378
aF6.2543091019907138
aF15.060882115358979
aF4.7933031426611592
aF7.7945567349694658
aF7.2448827659617479
aF12.117579638656338
aF4.3075586371744095
aF9.7315858037110345
aF8.6862559472386351
aF23.936133032591869
aF7.5504051225464348
aF12.979293933517075
aF7.9335058621549024
aF12.542782555831238
aF7.0442613356950972
aF9.4604251816064533
aF13.249633864694161
aF7.0442613356950972
aF7.0442613356950972
aF4.0375336079741118
aF13.407121109726909
aF5.5000346537943301
aF4.6848118295933574
aF7.3702452207891298
aF5.0218692706378363
aF4.997044091233704
aF5.229117538352547
aF13.809632092450869
aF4.9044000896074351
aF4.2327401551503812
aF7.4639035906775604
aF7.2789975530472475
aF14.839722582187981
aF4.5322998983128926
aF4.7141663822491919
aF4.1825869376971525
aF5.9661386928998752
aF4.9070173662282599
aF6.0277404776591617
aF6.3751061394891266
aF4.001891365160418
aF7.1898818257220825
aF7.2314361174335318
aF4.480622711840776
aF4.7507826195562002
aF11.508338650864353
aF28.558813674611194
aF11.119423895273897
aF9.8689896761230784
aF5.4013996471352002
aF8.0242898776142511
aF4.9392035542348935
aF9.7019416235533811
aF22.911013971894203
aF7.0275146794658383
aF6.1553135037635673
aF6.2888214441492636
aF7.0858075651939316
aF4.5727254830784574
aF6.7780435511695742
aF11.223903334820335
aF5.2507068528663581
aF4.0378214705908277
aF7.4758660763530571
aF6.6296078601472459
aF5.8787761663419502
aF5.4438818066177994
aF16.388258859484665
aF4.3511193933268117
aF8.9875017276347648
aF5.2879751580387335
aF6.2962095174856927
aF16.818277004366493
aF5.0367051512026251
aF5.0528514451218598
aF11.036334909413455
aF5.6046492087398292
aF5.8866626792079728
aF5.4908151376047662
aF6.668953457008115
aF5.3725384300648358
aF5.3725384300648358
aF8.3776009471367345
aF19.130071735725608
aF16.250900382798278
aF4.1075905077381023
aF4.1799946693520269
aF10.421793259677102
aF20.811527760688222
aF15.588711620611761
aF7.9720213168231169
aF6.2187226300260647
aF4.4727117108210592
aF4.6348561265539594
aF4.5131704750794519
aF4.4444575740754715
aF6.6851659483896384
aF13.850210309537642
aF6.5631384587761588
aF7.9926067138645607
aF8.9759994664012197
aF6.2909504404356795
aF12.093409167142596
aa(lp16
F5.7520154236135141
aF13.404070001527359
aF35.991419874928738
aF19.404876183907845
aF29.500026164051661
aF4.9321655715481825
aF4.3851620349203841
aF19.246900767289979
aF6.3297011162022301
aF5.1110135959263516
aF15.421760400879185
aF23.813812611851134
aF6.1255350498172225
aF9.6682852753042852
aF5.8352000711084457
aF4.5569833513568057
aF5.0127455519201618
aF7.5733629822506998
aF4.4642081928918245
aF5.8352000711084457
aF6.508848038601819
aF7.6708903855804067
aF12.18953884255734
aF6.5546252955182212
aF4.9722383233805569
aF6.7909343021163693
aF9.9325904542867711
aF12.643657974527315
aF5.0856429889352963
aF4.5569833513568057
aF4.5569833513568057
aF5.07751297749396
aF4.9656805190156774
aF6.8107908498311076
aF8.9564860090788301
aF8.4868116539147991
aF7.1364779343423059
aF12.320307773055873
aF4.3126275896596695
aF5.4103052600533204
aF11.208125690327671
aF5.4777844237699753
aF5.9833131247355666
aF11.011956484637025
aF10.935284892856458
aF5.8352000711084457
aF6.9969614000585096
aF4.9675256390762854
aF6.4544303273075627
aF4.5569833513568057
aF4.9320012876350177
aF4.1877412092922555
aF19.47489782730289
aF9.3646790603690135
aF13.912425291738174
aF7.4800624857147255
aF6.7909343021163693
aF7.2725559535138871
aF7.5507215337647153
aF4.1528803469664624
aF8.5425351307130057
aF4.3783650407881112
aF13.182717165478161
aF19.478922618083274
aF61.16904905845233
aF11.115827941420811
aF5.0438962659303286
aF8.5258406577058565
aF14.186154066249802
aF5.0781699722404596
aF4.3844899833388737
aF4.0624020518422128
aF4.9656805190156774
aF17.449182029475445
aF7.8012789317718259
aF7.9420069064588574
aF25.52613007040798
aF17.408768158500081
aF4.5817022429083778
aF4.0102838976513766
aF4.7140778836410719
aF4.8591128746657972
aF4.5968953716909198
aF4.5022905026399149
aF7.1745879373797123
aF5.1394875102003112
aF5.9167100247619757
aF7.637320398961208
aF6.2425222099553306
aF5.5038897629542731
aF8.3134818251359306
aF23.37051079674022
aF10.766291907110659
aF5.6964402920160815
aF12.145026798669377
aF28.316682044871527
aF20.751030596922078
aF6.54864346796208
aF7.1621623421041676
aF11.284306146167648
aF7.2448599310658466
aF4.8002130559855232
aF5.652421067002888
aF9.0182112689828102
aF4.2979442775687318
aF8.3535124434228649
aF4.1222328298008648
aF4.0519608194585253
aF4.3615372558894023
aF6.71116175839866
aF5.9445749123397178
aF6.5394241531633668
aF9.6032630554745069
aF19.361553712772587
aF21.439303530673101
aF4.683129724663587
aF8.3990546607535634
aF6.5225802316479076
aF19.361553712772587
aF6.8875511227371362
aF14.468470373321303
aF4.8865695921161603
aF32.350530930277131
aF4.3784137065627959
aF15.000815950796976
aF6.0391230595731784
aF57.77428670686723
aF16.122659390910115
aF41.360132512249706
aF4.4714859397566329
aF5.7370942344698221
aF7.2779867975325203
aF4.8252916227819895
aF4.4871152127691687
aF4.1866480009427676
aF5.1791547159156295
aF11.420859827698921
aF10.30688068784616
aF22.790796426053809
aF11.508525462411953
aF4.4361999975226354
aF6.1815678876668727
aF5.4028994582672922
aF10.386257893377589
aF4.4423389151206631
aF4.3425577620010785
aF20.104312966398993
aF7.1343291237730995
aF5.3177759401019813
aF8.5746123128739455
aF6.1510077246925192
aF4.7220974208806865
aF7.3689787686372554
aF5.6883936406093341
aF7.4575729585378028
aF4.30484854675435
aF6.7920847655176715
aF5.5205712211011146
aF17.493906043808181
aF67.297391621264083
aF4.309295175399825
aF5.7510288996606107
aF10.096861133850723
aF10.096861133850723
aF8.5376812935582684
aF26.281287630658234
aF15.963951156715293
aF6.6596167969667022
aF8.5397211586322257
aF4.1609777811260926
aF19.544608734541889
aF4.5069175945377538
aF4.1866480009427676
aF5.1030902502303235
aF15.060882115358979
aF4.2225619131094092
aF6.3799317365251937
aF4.4616689356845711
aF11.863796041989303
aF8.5853430704616471
aF6.4009361951042614
aF4.0991969854915311
aF6.715393480558447
aF4.895261758697302
aF24.063004029463031
aF4.1171626121390545
aF21.066921794914787
aF5.1886172776213755
aF16.142795682496484
aF12.534840471951128
aF4.3921172390394361
aF6.6900834887463638
aF5.1030902502303235
aF8.9704329621839722
aF6.1339928665425276
aF7.307587589083596
aF10.497832332578952
aF15.478162204470038
aF17.753875868591031
aF5.6122457176410876
aF6.6487464799211153
aF24.99415974928376
aF5.8926062396517978
aF24.99415974928376
aF5.7839850090128095
aF17.606707312679774
aF6.8024713572490185
aF11.131042866844751
aF9.4316626586361707
aF5.0826956083584207
aF8.6129850401539585
aF8.6129850401539585
aF9.0509460746264097
aF4.5060765633235107
aF7.0631305999378924
aF15.83008580406019
aF4.1825869376971525
aF6.126412104725091
aF28.700555828189039
aF4.0401218308907119
aF35.898291750791117
aF24.894150279214784
aF9.8477757108058057
aF16.538044388324224
aF13.276717610113716
aF5.7224703323008441
aF7.9715387253959591
aF5.9716636186461329
aF7.4973263458064991
aF4.1767727013345173
aF4.92118108736544
aF9.4604251816064533
aF4.9899656468127489
aF5.8214353609532736
aF4.3910305385615089
aF5.3442317542337747
aF15.761594172443896
aF6.6300557688650557
aF7.871367567159723
aF31.040070245192435
aF54.367185780281034
aF11.752932011653655
aF7.1257794710684408
aF4.4579300623957536
aF7.8681033185808644
aF5.4378529635112187
aF39.396170210873287
aF5.1632367147738307
aF16.896400233457516
aF4.9954122986486666
aF24.837151351630588
aF12.708637399940955
aF14.543079337365796
aF9.7148472798703409
aF18.945202262960549
aF4.8423686498321672
aF12.133327405018946
aF4.0084957356674522
aF4.560287108625662
aF5.4131774967502793
aF15.131894640527136
aF10.017950156689011
aF5.7240998106416257
aF4.7312193354775047
aF4.6348561265539594
aF10.744237141544033
aF4.3673704681245873
aF4.1005575970314085
aF5.4104245616907463
aF4.4104552529191245
aF8.6892412825061029
aF7.000112438607573
aF12.240223650111744
aF4.1962712247090366
aF4.4601338289292336
aF4.7037325873356508
aF6.2909504404356795
aF5.5919643504198433
aF5.07103284984683
aF5.9664237177243287
aF7.954559414218707
aF18.002635919062801
aF7.5043217717628892
aF4.0346821780956539
aa(lp17
F23.252095855765702
aF11.531646703054804
aF5.660068699933376
aF5.1811206680339978
aF6.529760243576467
aF4.9864473669812526
aF9.1118853773832029
aF12.836161397323139
aF5.3318699483035914
aF4.1648003855973457
aF8.5425351307130057
aF5.8635865576725195
aF5.6938903399828682
aF18.743233210561158
aF6.0105243024644892
aF7.1364779343423059
aF6.76858665560178
aF4.3073381489279186
aF12.572924511002697
aF4.3381214533704693
aF5.0404304995450957
aF6.6922895175196828
aF4.0896465287683199
aF4.2402427358667296
aF5.7026811268056434
aF4.4232355308501212
aF4.0488896951955988
aF4.7140778836410719
aF5.4392364232754602
aF5.9295966328029959
aF5.2465792821358974
aF4.6218153675627178
aF6.6404053443259405
aF7.6746833582967753
aF5.3048304368587296
aF9.0614167575487485
aF7.1621623421041676
aF10.623220974995661
aF15.884089226622962
aF5.1526086007504475
aF4.0519608194585253
aF4.3220985262686042
aF7.7722224220122058
aF9.230355991483961
aF7.6029762103177063
aF4.2108103645221604
aF5.2281154428374776
aF4.8049457497988612
aF5.3881035396932049
aF26.942821520683363
aF32.737483289281556
aF5.2312802825830289
aF5.0438962659303286
aF5.9481211885256684
aF4.0913543816554636
aF10.564832567403117
aF5.1989214423971504
aF4.7875846193168456
aF7.8166628056286243
aF33.718956616551182
aF4.1146986080998147
aF31.30675222063309
aF9.2616594940341912
aF5.2898869366469796
aF4.8098101728454665
aF5.1526086007504475
aF4.6248854201455529
aF13.384650094244371
aF6.0225466681082622
aF4.0065028485850291
aF6.99734251227747
aF7.0058923681301195
aF4.0505403175352228
aF9.9636192294422443
aF5.0528979762528579
aF5.3711762642208782
aF5.8646985085342322
aF9.3310465944453256
aF18.418229419156063
aF75.51632889525375
aF4.6644279926454431
aF7.4066038748578791
aF6.7920847655176715
aF7.3998082292093557
aF8.9300076097118364
aF6.2922048476633421
aF4.2675033531834856
aF19.419023117319028
aF5.4301523427044316
aF6.4679325574928299
aF18.786527561124085
aF5.9935538661876748
aF7.3050660839879908
aF5.786457120472658
aF4.6252356961299483
aF4.6042872137908404
aF5.1928739761394027
aF9.3661035323377071
aF5.7888382561885834
aF8.2698809123130843
aF13.964619887317554
aF13.249633864694161
aF6.2821659356179751
aF14.366889109378931
aF4.8062424388400302
aF5.1579669380822395
aF5.4142937522713979
aF4.1661495343337807
aF13.759624529129532
aF10.557872805034748
aF4.0505403175352228
aF4.427740940814914
aF4.2282779368292189
aF8.518186915251464
aF5.1428709819333704
aF10.215727493796408
aF4.8976901358312102
aF11.455823621180016
aF4.2097207784910786
aF4.8541702333203673
aF5.3442317542337747
aF5.501157831408829
aF8.5648527314705092
aF7.2149711433346511
aF5.2169860139801756
aF7.5850717931162563
aF11.232650396022649
aF22.036670008047821
aF5.1121383060082763
aF4.2448235262414897
aa(lp18
F23.710966479660357
aF5.9891565399179427
aF9.6682852753042852
aF5.4392556050580483
aF18.745857088986632
aF5.6894807620487668
aF4.6380607861616028
aF20.228691035221125
aF4.0065028485850291
aF15.988775253195541
aF7.4800624857147255
aF23.943592743300133
aF4.5569833513568057
aF9.0957387431662013
aF6.8107908498311076
aF4.6301388782624571
aF4.3783650407881112
aF4.9083691296079621
aF4.8010738049771646
aF10.71686237870982
aF4.3203298179629428
aF7.8786456024701295
aF5.9806783179578247
aF4.1469999728132194
aF5.3434156991458366
aF4.4661183556375619
aF4.6223476795759169
aF7.2173926583107999
aF4.0272421396273046
aF10.903107267507579
aF7.4800624857147255
aF27.526339573213221
aF11.614891412175297
aF5.8963382157669599
aF18.547863605517989
aF6.6922895175196828
aF12.655685338174663
aF6.0883238522591085
aF5.9519240114492362
aF5.7520154236135141
aF6.3922160626555637
aF4.61086172749296
aF4.0027435397526148
aF4.2814044166650831
aF8.1336815771541353
aF8.1336815771541353
aF5.7945044827113321
aF13.567460047236025
aF13.567460047236025
aF4.1704302516485257
aF5.2465792821358974
aF4.3578517276968682
aF6.7426433647852022
aF6.2425222099553306
aF8.6954629206690441
aF5.1001376573354662
aF7.2590751471418145
aF5.6358748272513282
aF4.5174928248239468
aF5.4141650253176374
aF4.3530691338672147
aF4.0519608194585253
aF5.1526086007504475
aF10.330908191916116
aF9.6206648722555883
aF5.2989517398860784
aF6.602978988373053
aF11.406802052512703
aF11.406802052512703
aF4.2260560424588611
aF11.005777590372464
aF5.0992227395818333
aF4.3223564866471733
aF17.26519635219428
aF4.8865695921161603
aF7.6029762103177063
aF4.2108103645221604
aF4.3003577817633172
aF5.1526086007504475
aF7.3998082292093557
aF5.4412008009062944
aF4.0783819997503485
aF6.7635675934684514
aF4.5404705369750342
aF6.8841033255191171
aF4.4714859397566329
aF7.7773961511178058
aF15.326684956693342
aF7.458328373871808
aF4.0084309125830941
aF5.4910995607322199
aF11.570633667166831
aF6.8242891855221828
aF6.4218005787766259
aF5.428059592863562
aF14.716017818292926
aF6.1764456001049233
aF5.3881035396932049
aF4.4978047742794161
aF4.309295175399825
aF7.7290452930971867
aF4.4499846990741316
aF4.4499846990741316
aF6.6004411417237989
aF7.4575729585378028
aF5.908263238640366
aF5.332341541920222
aF6.4234110718327031
aF6.4234110718327031
aF4.0499924540801828
aF8.6127130266090717
aF7.6605634135892231
aF5.589214723761188
aF6.8833716269845695
aF5.3881035396932049
aF4.7527567373765436
aF4.7875846193168456
aF10.648724012574874
aF5.0488139168165276
aF6.196019487626458
aF4.1655633172194797
aF5.0528979762528579
aF7.6596401489748445
aF5.8646985085342322
aF9.7304225768801729
aF19.075527302179154
aF6.4226734366947795
aF11.420859827698921
aF4.7412358283663423
aF5.1840368551434608
aF4.6475899043728646
aF6.9081124586333118
aF16.531979202692284
aF11.167588193684324
aF5.7657994687755831
aF5.2614782804995599
aF6.8092913126077832
aF7.0351353186876509
aF6.9128273260508593
aF24.144981662695656
aF5.648900627223866
aF5.6883936406093341
aF4.6745776598619173
aF8.4827408794079844
aF4.4991902966450397
aF7.6185872089289859
aF9.1344104213759323
aF4.0241200683160514
aF4.1843555738903433
aF5.494634999232602
aF12.979293933517075
aF6.4688414161856684
aF4.1514225937287819
aF5.8358221433541928
aF4.3600258677456543
aF18.505476952778253
aF5.2405857748630496
aF17.852478490184346
aF7.0157807021103054
aF4.6746954906856786
aF5.0826956083584207
aF11.752932011653655
aF13.809632092450869
aF4.3083145611048792
aF4.2557314198436274
aF5.9661386928998752
aF7.3818322419651068
aF11.792452007959085
aF11.812532084431098
aF4.001891365160418
aF4.6131840699469748
aF4.0231963084129063
aF28.251665402262745
aF4.1271676900693688
aF5.7231215858143116
aF4.4917075194196059
aF4.997044091233704
aF15.141396436254432
aF4.9601438375970162
aF4.1867915201223482
aF19.224900477439881
aF13.493382291356767
aF4.001891365160418
aF7.7169729976217543
aF4.275385439876672
aF4.0654966342856369
aF7.336606915420262
aF6.2383725402816452
aF7.7027380181873752
aF4.9295757998843044
aF4.2316903533504018
aF5.8620924557144036
aF5.4088055010514609
aF8.8993201414615957
aF5.2518379960591233
aF4.8092485957206534
aF7.7681023673334764
aF4.6746954906856786
aF7.9878778684619931
aF4.0579349723080291
aF4.2327401551503812
aF11.454992186372571
aF4.2571731912355801
aF4.5033195329102256
aF5.0367051512026251
aF12.21491068973377
aF45.688861343880767
aF4.2269643049352474
aF7.0607861874312619
aF6.668953457008115
aF6.1749222604947818
aF4.6189302317912801
aF5.5567932988444895
aF6.9246382431873457
aF7.2857930607706862
aF7.6617784756345628
aF4.0378214705908277
aF12.472436250372297
aF58.375753609909992
aF13.905387046580298
aF7.8811164687073472
aF6.7338686150442593
aF5.1526168404647521
aF10.429230201223604
aF6.4726274553054637
aF4.2067169007757705
aF8.7625579048566422
aF7.7531961818558131
aF6.8365408521491133
aF18.946671106882945
aa(lp19
F4.2354866465161978
aF4.3718651564154776
aF7.2664216131166626
aF5.7911599544201522
aF4.4642081928918245
aF4.2902458291339123
aF8.4868116539147991
aF4.9350149059718262
aF12.964938544192918
aF5.0722493848070371
aF6.1346704903921569
aF4.1722297332151186
aF7.671731150675777
aF9.3646790603690135
aF87.393521972307155
aF10.253930067318009
aF6.6483469596483316
aF10.028821449198887
aF17.539323498949358
aF4.2799066295398944
aF5.8750523069452072
aF4.7072520463305096
aF15.590788259947828
aF4.8591128746657972
aF23.209976390598683
aF7.6887488254076999
aF6.6838850107233405
aF6.6364739917473656
aF12.145026798669377
aF18.475509856180324
aF4.5174928248239468
aF7.3435449674176709
aF4.0519608194585253
aF11.302040170680574
aF7.95760450164547
aF5.332341541920222
aF7.95760450164547
aF5.4282651508139601
aF14.102130580015473
aF9.6127730647898026
aF12.256498368491769
aF5.3478905909708132
aF17.051077265660375
aF5.3696546970255952
aF7.5327503240800553
aF6.5225802316479076
aF16.644786074884507
aF8.7919574536661003
aF27.304153299759705
aF17.554849181579641
aF10.236699202767809
aF7.7290452930971867
aF4.2146388987568741
aF13.669128054303442
aF6.8834455985143848
aF4.3425577620010785
aF7.4057949895307189
aF8.0727816221961319
aF7.6003327575271769
aF10.997684027977051
aF8.5151241482965645
aF6.7053948045440244
aF4.7016307058544839
aF5.5205712211011146
aF17.493906043808181
aF4.0913543816554636
aF67.297391621264083
aF4.2089400155323915
aF6.4913050121453182
aF4.8656777611006419
aF4.1319593780746944
aF4.7442646196487885
aF6.2716223326877731
aF4.2705852085626077
aF7.976923319747609
aF8.0835240943122457
aF5.9170315160001223
aF4.861518762867135
aF9.7969304364840184
aF5.0992227395818333
aF24.941286369021668
aF6.3335410050089678
aF4.8120078283421321
aF4.1618402126995733
aF11.57268339711537
aF4.2227828612838891
aF4.6131840699469748
aF6.8024713572490185
aF5.4481434637061312
aF4.4917075194196059
aF6.7936198564447778
aF8.5752669602354175
aF10.928025386648509
aF22.463021005461826
aF7.6484709472047427
aF6.567697878762516
aF9.6247205847615902
aF4.4538000980169841
aF8.1912190120630441
aF5.2369593160386501
aF10.435308025911695
aF5.8183879165478629
aF4.3062873355637521
aF21.103882005161495
aF7.8843896797052366
aF13.891482172479314
aF12.366493425027699
aF4.8092485957206534
aF17.195625081295166
aF6.9624954202983105
aa(lp20
F4.5809980618639088
aF4.9568843778763778
aF5.5323603087682471
aF5.4103052600533204
aF4.3781398396641951
aF9.3801466267026292
aF50.391901895384116
aF11.921076485505527
aF8.4234983751172479
aF5.1958750167396062
aF6.5106910827292168
aF4.9722383233805569
aF4.1621782598282238
aF4.1433835951050106
aF12.036482608278618
aF7.2959813570415832
aF6.9969614000585096
aF7.0714307356643076
aF9.820897449939693
aF4.5569833513568057
aF5.0137717659763865
aF8.0735731204946948
aF4.4859902970002992
aF4.1469999728132194
aF12.329089667515717
aF4.1101037257036239
aF4.8981001391550194
aF4.4628922576192593
aF6.508787993900583
aF8.2680311793689043
aF6.1710826630947366
aF13.341903728859176
aF4.3781398396641951
aF7.2725559535138871
aF4.6651233219192889
aF7.1709061108957286
aF5.0411373931923613
aF7.5188905250409448
aF4.093447046506256
aF4.0926611863907816
aF5.0914319986406866
aF10.117751536349719
aF4.2098392268786426
aF6.2742958457381981
aF5.804227082585081
aF11.158452845018139
aF13.054996835749492
aF4.0488896951955988
aF8.6004022057643112
aF5.1526086007504475
aF8.6313985851056714
aF9.9925376058752704
aF27.448926637475765
aF6.2425222099553306
aF4.586499202586733
aF4.8220708289053675
aF11.219414594084768
aF12.120679272267836
aF5.2694973371156379
aF4.0783819997503485
aF11.371842120635719
aF4.0764018703298035
aF4.2979442775687318
aF8.1176705823301631
aF32.193200628480369
aF10.209268979647256
aF4.2429739453866944
aF14.993311794835691
aF4.8182826441401687
aF5.6644553181435526
aF9.4539686609807987
aF4.5404705369750342
aF4.8115468937957786
aF5.1526086007504475
aF5.2281154428374776
aF6.0266633379853651
aF4.5404705369750342
aF14.424520807621832
aF4.5441297819413524
aF19.885141191083335
aF8.4393444543695537
aF8.0926665678813379
aF4.093447046506256
aF4.5193362361419602
aF4.065762920129373
aF8.3990546607535634
aF4.4714859397566329
aF5.8055394598321985
aF4.9512039838558479
aF55.828377615580834
aF4.4499846990741316
aF22.035064320735557
aF5.332341541920222
aF4.9262644839199297
aF10.386257893377589
aF4.6248854201455529
aF6.8834455985143848
aF7.5221522334762199
aF4.1358722274425972
aF18.445228064320379
aF7.3998082292093557
aF5.3881035396932049
aF7.6903309124729589
aF7.1853375696641422
aF7.1853375696641422
aF23.491868234395511
aF7.3689787686372554
aF4.7527567373765436
aF7.1621623421041676
aF14.928009832089206
aF10.017559984445143
aF7.4080456939563035
aF7.603672474702023
aF4.0913543816554636
aF6.4009361951042614
aF8.6127130266090717
aF9.3415627587394816
aF4.7323887301541845
aF5.7418821366942439
aF4.3509905732506127
aF6.6810845137290968
aF6.647488258280541
aF5.2347626833122902
aF7.8701527297731673
aF4.9512039838558479
aF46.189618347737351
aF4.7875846193168456
aF10.648724012574874
aF6.4800395760266269
aF11.146031081012559
aF8.4286962807831856
aF12.18765062438888
aF19.739403722352613
aF4.0991969854915311
aF14.05156675118036
aF4.7061316219095488
aF16.333875629028753
aF12.22837516547628
aF6.4555216409779064
aF16.272293131344238
aF6.9008719917903356
aF5.3553841702991036
aF5.8959488118349972
aF7.7471938701139003
aF8.5144807277481682
aF4.0819415714779517
aF27.95844720290426
aF5.0480364959628119
aF6.4226734366947795
aF4.2675033531834856
aF4.8872448934036186
aF8.0461610628005413
aF8.0250726829094745
aF4.9168932558564649
aF4.5322998983128926
aF7.9305626219561418
aF5.9523605545449385
aF7.978592663425232
aF9.4949137935790304
aF8.9176611160883397
aF4.6532918956469587
aF4.2227828612838891
aF11.383573846222308
aF4.6639572309706026
aF5.9929071373539671
aF10.478542173777116
aF4.0241200683160514
aF4.9579012305575958
aF5.2010470562747457
aF6.126412104725091
aF11.691017573894406
aF11.958475808914422
aF4.3067238044347649
aF4.1809322189455145
aF4.1809322189455145
aF8.5721909766565574
aF16.238469538097661
aF7.1537050836408298
aF6.9516692196356971
aF5.6427246550068322
aF20.00864534559765
aF8.9176611160883397
aF4.0401218308907119
aF5.2214932798893301
aF6.6665920005108319
aF8.1768597534652798
aF5.8643076185260838
aF7.0297043140539586
aF6.3029335958918864
aF4.6238707791220524
aF9.0055506751733176
aF5.3369559675090805
aF5.1331166616381907
aF4.9182359442073249
aF10.423789438169848
aF6.4380187009006846
aF4.1505276806877021
aF21.73837488480433
aF8.1022929633486171
aF9.768709349317362
aF10.567747842088959
aF4.2327401551503812
aF6.6314539760888067
aF21.067319722123997
aF6.8455724015641763
aF7.9305626219561418
aF11.780476460024886
aF4.8838032648220775
aF4.3449622911377617
aF4.1016115311865065
aF5.0800590985504357
aF4.8373948984749688
aF4.8373948984749688
aF5.4088055010514609
aF25.539887350777786
aF4.6252356961299483
aF36.524225955803502
aF5.3084832089064378
aF7.5850717931162563
aF13.192856639726529
aF7.5029515437242082
aF7.4272993444322424
aF8.1838300248832923
aF4.1861561790517783
aF5.1215739416887542
aF6.0918014027580121
aF5.2648562167210677
aF6.4726274553054637
aF7.7681023673334764
aF6.8289186756009599
aF5.4327321688688102
aa(lp21
F4.9864473669812526
aF6.2539259219271912
aF14.268049130543773
aF22.987297168666636
aF4.5569833513568057
aF6.1560097938766205
aF34.62466529985349
aF5.8206869644093473
aF10.475368712573104
aF4.2456177988019022
aF4.0048759214506333
aF5.0146869143120369
aF9.662089175618533
aF4.0517471688057114
aF4.3203298179629428
aF4.6186778691678825
aF5.9566255901017442
aF4.5569833513568057
aF5.8206869644093473
aF5.5112418773542231
aF7.707699486307888
aF4.1469999728132194
aF4.3593652138949182
aF6.5068843527315607
aF18.470104856138548
aF16.070591836157284
aF18.475509856180324
aF6.9969614000585096
aF4.9675256390762854
aF10.875079657995439
aF10.928688294997187
aF6.1255350498172225
aF9.6682852753042852
aF6.3750723625236674
aF4.5569833513568057
aF4.2957984453009299
aF4.5569833513568057
aF4.1379244142003699
aF6.1109767177025276
aF9.3646790603690135
aF5.5117850645490911
aF5.0411373931923613
aF5.0668596666643708
aF5.4691516637492299
aF4.2663108436963597
aF27.078473554279661
aF5.5459866898816585
aF12.991276348585345
aF4.55065177152429
aF10.028821449198887
aF8.5503929819712425
aF5.8462515585388246
aF6.650602017467925
aF4.3950119197491802
aF12.004391965277733
aF6.9275204624251572
aF15.590788259947828
aF4.313836618062453
aF4.0053644989841182
aF29.529254776048127
aF23.563245890330236
aF4.3902186658232409
aF5.3490510814196739
aF9.1485519231644474
aF4.9425765584995975
aF24.98832568534581
aF4.0523572032456485
aF5.8515191731453733
aF9.0853393052697555
aF6.7908828883138952
aF8.3775689651040466
aF5.7112136155614621
aF12.285621719455506
aF12.411554184244835
aF5.8950593605050088
aF12.839156673602997
aF17.613170941099327
aF18.64392671861188
aF4.0065028485850291
aF5.5038897629542731
aF4.4487259308650096
aF11.242811865813621
aF18.475509856180324
aF4.3950119197491802
aF7.8012789317718259
aF4.6018236650696878
aF9.1088169468138318
aF4.2207919637935518
aF5.9172381714165567
aF4.1222328298008648
aF6.5071883218469964
aF5.0746997729119414
aF7.0574317854639474
aF6.0849671999648365
aF4.1139081043016148
aF4.9032406882921862
aF9.4982656420038438
aF5.2347626833122902
aF5.8497830795244354
aF6.647488258280541
aF5.2347626833122902
aF4.4449678102013479
aF13.759792049651139
aF4.8049457497988612
aF4.2780859845958901
aF6.5247499616902189
aF5.4412008009062944
aF6.1764456001049233
aF12.042079121300544
aF10.766291907110659
aF5.0099011677551175
aF36.774328246033633
aF4.9516448282487602
aF7.0861702570281153
aF6.6012476349791882
aF7.938547630699901
aF6.87590236993519
aF6.87590236993519
aF7.9416919402678783
aF7.936265709233588
aF7.6895188813753919
aF14.033569575518275
aF5.5931969799986661
aF5.3696546970255952
aF4.6218153675627178
aF5.332341541920222
aF4.9656805190156774
aF4.7442646196487885
aF4.2623177671355634
aF7.6936006333609583
aF19.361553712772587
aF5.1437666074339319
aF8.7919574536661003
aF27.304153299759705
aF4.2622781548504065
aF4.0440949362685501
aF4.6381462391939863
aF4.1384587477484143
aF11.45883777583277
aF5.1158395159640335
aF5.9170315160001223
aF4.4157592464765756
aF6.6341348881736124
aF13.640273464982393
aF4.3090613587929596
aF5.1030902502303235
aF7.9416919402678783
aF11.477037586497289
aF6.6114394811800707
aF7.9634914955251048
aF6.0391230595731784
aF4.0783819997503485
aF4.3425577620010785
aF4.8252916227819895
aF8.9466547824405467
aF6.693020605259866
aF4.1171626121390545
aF11.758470959966068
aF14.260763188908314
aF5.6384810463370059
aF7.458328373871808
aF4.0084309125830941
aF4.5091269908868981
aF5.1458215420879441
aF4.5609063521178825
aF7.6003327575271769
aF10.078440949610801
aF4.4410237800690311
aF4.9363834061851293
aF7.4080456939563035
aF17.493906043808181
aF6.8834455985143848
aF9.9104090075327029
aF5.8646985085342322
aF4.5268654927233705
aF4.4672908557260627
aF6.4647926103748574
aF4.7697320141832034
aF9.0121687976179246
aF4.5995896702545309
aF5.9974774552360381
aF6.446757586633769
aF13.941343490922421
aF4.9372237434840756
aF24.484355206880618
aF53.385207646401007
aF9.2725779618650108
aF4.0065028485850291
aF6.99734251227747
aF5.3177759401019813
aF5.0707290069494206
aF12.052125402543396
aF4.3985428796284225
aF7.0852037056248207
aF7.7773961511178058
aF8.6417188396258098
aF4.0712392942316029
aF5.3833203590955492
aF4.0385370441850768
aF7.1541752830272429
aF5.4582184087687295
aF5.373058775575049
aF16.965722615859761
aF8.5625855946905034
aF4.5069175945377538
aF6.2922048476633421
aF5.0707290069494206
aF4.1505276806877021
aF11.868295409042432
aF9.2559258749966133
aF7.1188538883669352
aF5.1571118927810176
aF4.0443158884819468
aF8.138939124040931
aF5.1609369109290952
aF4.0484822618885659
aF5.0696938256952677
aF4.1843555738903433
aF5.0478529381207409
aF7.9305626219561418
aF6.4688414161856684
aF24.99415974928376
aF4.3600258677456543
aF5.0398469952086984
aF8.9275143466880991
aF5.6455914614077329
aF6.2595531183757167
aF22.307608177892433
aF12.148670783387033
aF14.494058293219211
aF15.441280785351864
aF10.447827882869376
aF7.8405728037468805
aF8.1768597534652798
aF5.0367051512026251
aF6.685732857671665
aF4.2983729096796957
aF4.9722875085314939
aF5.8358221433541928
aF5.5952782517369997
aF4.893113076454064
aF4.9579012305575958
aF6.8908599383451232
aF6.126412104725091
aF4.9869488181290293
aF5.2558616066300061
aF5.3849381427882577
aF6.8024713572490185
aF9.2999833709020834
aF5.0558543602089543
aF4.4649341198958723
aF9.8477757108058057
aF4.4515971334188151
aF5.7939945970028504
aF5.9227853764551455
aF5.4766222459326102
aF15.39279950681172
aF8.3861256483438638
aF5.1855719460705672
aF5.7939945970028504
aF7.978592663425232
aF5.6427246550068322
aF4.0702563046789351
aF4.55516338039941
aF7.8885024285221448
aF31.898573031114864
aF6.5813419681989709
aF4.0268109052936438
aF16.69597075112479
aF7.7169729976217543
aF4.4364630221787422
aF5.3253941067251134
aF4.7254961092195771
aF7.048978869702033
aF12.572947078645427
aF5.6104748967009304
aF5.0801018510667548
aF6.2888214441492636
aF7.2970158630441944
aF5.2518379960591233
aF5.1620308320968817
aF5.0974342730370523
aF26.846473699603095
aF14.334379158146087
aF10.13985115068985
aF4.4917075194196059
aF11.477037586497289
aF7.9305626219561418
aF4.2232984611136146
aF9.4949137935790304
aF11.982618899371715
aF10.369510113217686
aF9.5099667728338986
aF5.9478927190970978
aF6.112183109621995
aF7.9926067138645607
aF5.6046492087398292
aF5.1758636458384579
aF6.1963286658200758
aF5.2859980819466443
aF11.722024569380295
aF4.0403729013569194
aF7.0157807021103054
aF5.5391178769720852
aF6.9993865603660481
aF4.6258229784373341
aF4.1221616407549533
aF9.0465617686738113
aF5.289024946388917
aF6.8289186756009599
aF6.6851659483896384
aF4.2067169007757705
aF5.0000098473426817
aF5.1828731170922993
aF6.8289186756009599
aF4.2870194623821902
aa(lp22
F5.4103052600533204
aF7.7004060280626163
aF6.529760243576467
aF6.0233886901266231
aF5.4363009649650564
aF4.2902458291339123
aF9.1118853773832029
aF4.7663891179641382
aF4.9576681124305537
aF4.489802502470944
aF30.686343402858263
aF23.943592743300133
aF4.5569833513568057
aF9.8955361125048711
aF6.690261939916283
aF4.9666612066879168
aF6.8092913126077832
aF8.3097880349614854
aF13.998915985486306
aF6.5073019318960874
aF26.752627931469906
aF30.172954933981835
aF6.8181318646841778
aF20.130296710062165
aF5.5960385121707077
aF10.383020875259527
aF20.130296710062165
aF8.2951548238067545
aF10.447461831966848
aF11.936096934516026
aF4.8010738049771646
aF5.7879446078702586
aF4.3781398396641951
aF6.3755276353616921
aF6.7909343021163693
aF4.3948358168804198
aF10.732862714089663
aF5.7689060319292764
aF15.468967916140201
aF7.1364779343423059
aF15.591803227433278
aF4.9425765584995975
aF4.0102838976513766
aF4.8591128746657972
aF11.614891412175297
aF24.98832568534581
aF8.4393444543695537
aF12.710708710711842
aF16.137521679426996
aF4.5065649641615835
aF9.2432544053372112
aF12.145026798669377
aF9.0878091315719445
aF4.8041856193728165
aF8.1419760492022863
aF26.676972926977157
aF8.0192782192222261
aF4.6218153675627178
aF4.8667819878540044
aF5.9080382448019648
aF6.602978988373053
aF4.6741677723181283
aF7.2723352109894179
aF4.1866480009427676
aF4.8237050959385783
aF9.0385794134589332
aF10.254708511144809
aF5.1526086007504475
aF7.860939450170676
aF6.3069529243941176
aF8.5146226228699646
aF6.0609920386478819
aF7.7773961511178058
aF22.727794802795742
aF7.4594513765081274
aF4.9861456312308263
aF4.8865695921161603
aF9.6812054479867413
aF4.3758621081144469
aF8.0040246117277718
aF4.2603033184489902
aF4.0798779303262478
aF4.5404705369750342
aF6.8841033255191171
aF4.9631196355549605
aF6.1764456001049233
aF7.0861702570281153
aF4.7385459782979922
aF26.942821520683363
aF12.119699528587759
aF5.6152555976533876
aF4.7525679965316741
aF4.4717743637749834
aF4.2894653787354855
aF33.718956616551182
aF60.394472568754509
aF4.8098101728454665
aF6.2847912428916928
aF5.4028994582672922
aF5.9481211885256684
aF5.2619872569406141
aF4.7465180471596398
aF4.5906902645990044
aF14.303118088382931
aF31.750476897434563
aF14.192310419551717
aF11.579632933571418
aF19.419435258032934
aF7.3689787686372554
aF23.577373993098902
aF4.3187363076641816
aF6.4908618382378904
aF4.0499924540801828
aF7.1047413765676026
aF4.6427855634023558
aF5.9035236399742814
aF4.30484854675435
aF5.0411373931923613
aF4.7527567373765436
aF4.9363834061851293
aF8.0538623743898086
aF12.052125402543396
aF17.181982057912116
aF4.0244874623466824
aF4.0764018703298035
aF7.0852037056248207
aF19.125814629183264
aF8.7073139428327408
aF12.608612661401082
aF7.1541752830272429
aF5.373058775575049
aF4.367508714672681
aF6.0792543289386458
aF4.861518762867135
aF9.7969304364840184
aF11.364848801666511
aF6.3815883874050314
aF4.1866480009427676
aF16.333875629028753
aF12.897331719236931
aF7.95760450164547
aF4.1843555738903433
aF9.4949137935790304
aF4.6062691380683844
aF7.4393263305034196
aF7.1188538883669352
aF4.9873180773712562
aF9.7422805207555871
aF4.6745776598619173
aF4.1955200429722623
aF7.2067284279284394
aF4.1888488382724773
aF12.57180755147408
aF4.4037040561106835
aF25.281932154393303
aF11.812532084431098
aF5.7639329915465112
aF4.0424422222407941
aF5.1086773672672834
aF9.0882719016233864
aF4.5570713244005496
aF5.4088055010514609
aF4.4917075194196059
aF5.1579669380822395
aF4.001891365160418
aF4.2282779368292189
aF4.0021547824160457
aF5.2169860139801756
aF6.2145693066172925
aF18.079536182709234
aF4.0843691148304977
aF6.1775777806083951
aF4.0268109052936438
aF9.6998562630730305
aF4.3782900238892832
aF4.5125467519798548
aF8.2456968364473653
aF7.5224605362746226
aF4.9954122986486666
aF6.5715406119698372
aF8.9300076097118364
aF16.785400189055977
aF4.2179799335775385
aF11.180809906728513
aF14.624064436459818
aF5.0801018510667548
aF4.0024694978055066
aF9.4614757935295337
aF4.1514225937287819
aF4.9002442847964289
aF5.5793853766250123
aF4.3957646172111779
aF5.93230778808433
aF6.3913402753780559
aF10.553832115565166
aF5.7052033490886132
aF7.1154899688607713
aF10.971944371259074
aF4.1702878208391034
aF4.0050539404956709
aF7.2131956585134063
aF4.92118108736544
aF8.1796328789989445
aF4.92118108736544
aF8.1796328789989445
aF6.6997467480838395
aF6.5228028630832
aF6.157301506667423
aF12.135727762359558
aF12.565654417386099
aF5.8787761663419502
aF13.92865242297249
aa(lp23
F4.9686470005722576
aF6.8463127949094726
aF10.66252886605804
aF4.2284891895923131
aF11.379271349859238
aF5.5112418773542231
aF5.9566255901017442
aF7.241880650071721
aF4.0204426271814286
aF9.2805091875174242
aF6.2742958457381981
aF12.145026798669377
aF10.013803862961922
aF10.928688294997187
aF8.9352762325765553
aF5.0084226312936124
aF4.7327918766594124
aF10.588214896778993
aF4.3781398396641951
aF20.382824718447864
aF4.9568843778763778
aF7.4551928324495691
aF4.6117472070852576
aF5.5095582716882205
aF8.1986624824487251
aF10.028821449198887
aF8.5503929819712425
aF4.2672600873771884
aF15.146137827331557
aF4.0290214907400923
aF5.8743928906352778
aF12.440004654510091
aF4.1428246694153472
aF4.8354000205130774
aF4.1965359713487231
aF11.909737424484916
aF4.5428485123894404
aF7.1870301268650962
aF5.7112136155614621
aF4.5065649641615835
aF6.55495039214847
aF17.928661730943588
aF5.0411373931923613
aF12.145026798669377
aF12.120679272267836
aF18.407793079763252
aF4.1222328298008648
aF5.1526086007504475
aF7.500114779718615
aF4.9798524982485901
aF9.5411368700603987
aF20.257138693628313
aF7.2723352109894179
aF4.0084309125830941
aF6.0233886901266231
aF5.7289936430579758
aF5.1158395159640335
aF14.424520807621832
aF4.1439900253290887
aF4.0084309125830941
aF7.4193046382007566
aF4.8237050959385783
aF4.6043590400250878
aF4.7323887301541845
aF53.694100819526554
aF4.5860363521812531
aF6.715393480558447
aF4.1978971083210759
aF4.6381462391939863
aF6.9304691465282904
aF28.714286570022637
aF8.5151241482965645
aF8.5473742299144888
aF7.9123157121775876
aF10.863960256409602
aF5.1821635647133277
aF4.1459796246158334
aF8.4947395167356987
aF6.1376299495744817
aF8.0461934874759038
aF4.0102838976513766
aF4.1513149631507442
aF6.0391230595731784
aF6.8834455985143848
aF7.1047413765676026
aF8.0851778639335947
aF11.234032232467584
aF5.465586282387136
aF10.665833204591493
aF4.183317194610936
aF5.9445749123397178
aF4.7527567373765436
aF8.439161314277456
aF4.9903311614970676
aF5.1030902502303235
aF4.1387579185251298
aF19.125814629183264
aF5.611703961505242
aF8.0192782192222261
aF6.7345789496518336
aF9.4826650885165868
aF10.254533420410482
aF4.3419993006849253
aF6.4226734366947795
aF8.6417188396258098
aF8.0461610628005413
aF5.9935538661876748
aF4.4819859781360023
aF5.9935538661876748
aF4.1442406836525576
aF15.441280785351864
aF4.8400147748419045
aF5.305634380481159
aF4.1229631520521881
aF5.2010470562747457
aF14.58462272871647
aF36.588866408678697
aF13.038531529192539
aF11.069919806275848
aF4.9279715430585433
aF4.1387579185251298
aF5.2059868256453257
aF14.137547881084025
aF4.8776558415936719
aF4.8976901358312102
aF31.997887384742533
aF5.8134769884708817
aF6.6130879092175334
aF4.9954122986486666
aF17.959988121013993
aF10.290098024920312
aF5.4582184087687295
aF4.1809322189455145
aF5.6046492087398292
aF5.8830789981559946
aF6.6090353777912014
aF4.4018779720556012
aF4.3750915048797623
aF9.7422805207555871
aF4.1505276806877021
aF8.4960646687138208
aF11.353535733826725
aF10.971944371259074
aF4.6258229784373341
aF4.569669990052688
aF6.9958737863603062
aF8.3759850945419743
aF11.344018497794593
aF4.1251249693233483
aF12.093409167142596
aa(lp24
F5.9384630093832982
aF6.8780471764283249
aF6.5850499718579201
aF11.921076485505527
aF19.467644832136159
aF4.1621782598282238
aF6.7871624821053516
aF4.7663891179641382
aF10.174432472955942
aF9.4145451318583326
aF25.949255587635825
aF5.311953254207495
aF6.6627371827174695
aF7.5507215337647153
aF16.255098367733488
aF8.4453556419069855
aF4.501734854280997
aF6.7391277329253967
aF5.0411373931923613
aF4.2799066295398944
aF19.265717400078685
aF5.6641417709763839
aF4.358180945690961
aF4.5404705369750342
aF9.3243067289591828
aF4.2089400155323915
aF4.2499712510933065
aF12.155097589213341
aF4.1433835951050106
aF5.5931969799986661
aF7.5776032654526517
aF7.95760450164547
aF4.1404092596102409
aF4.2068176626306837
aF4.5411019613728172
aF5.5931969799986661
aF19.955415057759126
aF4.7436427826678624
aF8.5746123128739455
aF11.319305715918247
aF4.0783819997503485
aF5.611924220294739
aF4.6046379267249362
aF4.6644279926454431
aF6.7791658728930742
aF4.9261947388833676
aF4.24850167889457
aF4.8400147748419045
aF8.0461934874759038
aF11.340508007385125
aF7.95760450164547
aF4.8149240972742469
aF4.2705852085626077
aF11.492554822643115
aF4.4550800873381498
aF8.8425161549291147
aF6.6900834887463638
aF26.674869406585898
aF4.0244874623466824
aF9.0174112876652579
aF5.450470625777001
aF6.6877904709930789
aF4.6675615082156554
aF8.9300076097118364
aF12.700863341916502
aF5.2282266149038499
aF5.5793853766250123
aF5.4672371501055892
aF4.1155466161909828
aF9.0201683368098031
aF8.6823784674636784
aF11.357716734185892
aF6.7989422460584388
aF6.8289186756009599
aF4.0691444551174101
aF24.746237778870107
aa(lp25
F5.9339641592411212
aF4.3718651564154776
aF19.238532164798642
aF5.0127455519201618
aF5.4608890213796784
aF7.0386241805124508
aF7.1819848213201283
aF5.0137717659763865
aF4.1469999728132194
aF12.329089667515717
aF7.4539814798107855
aF9.2901819284939222
aF10.397107902300107
aF4.5569833513568057
aF6.6366682668534054
aF8.2951548238067545
aF4.0523572032456485
aF12.47460333920894
aF10.73755677415086
aF5.4006304847807911
aF4.3781398396641951
aF4.8981001391550194
aF13.162658813010161
aF6.0540921230348648
aF5.5095582716882205
aF6.0590626572412276
aF9.0073724929644285
aF4.1346926606579189
aF6.2279011394595329
aF8.997997429478545
aF4.7140778836410719
aF5.8409214802765064
aF4.8354000205130774
aF13.009652473881609
aF11.134880495397335
aF8.1986624824487251
aF7.1576736866914956
aF4.4487259308650096
aF5.6582940511333248
aF7.9259195032852432
aF10.73755677415086
aF11.242811865813621
aF4.1433835951050106
aF5.1526086007504475
aF30.975299577677717
aF9.0358642715099506
aF5.2347626833122902
aF7.7183252383397871
aF6.677997143693986
aF5.0531119094552537
aF4.207143459861868
aF14.993311794835691
aF5.6964402920160815
aF4.8730769674185694
aF4.1178016999797364
aF26.015556027167406
aF6.5225802316479076
aF4.0798779303262478
aF4.5404705369750342
aF5.2916719079972552
aF5.1903679295633367
aF5.6385777453195374
aF5.3296856883869594
aF5.6820221498622789
aF5.908263238640366
aF6.6114394811800707
aF8.0933659046382047
aF6.0637646403440044
aF4.5268654927233705
aF10.269835453249982
aF10.962562715933046
aF4.7140778836410719
aF7.8947758585978534
aF6.99734251227747
aF4.6824708943805149
aF6.4908618382378904
aF11.110181875978384
aF4.3187363076641816
aF4.30484854675435
aF5.1917809787866958
aF4.3713174940355657
aF4.7436427826678624
aF4.3593652138949182
aF11.146031081012559
aF11.469884862421964
aF7.5250748713005464
aF5.7639965711896366
aF4.1022137165063013
aF12.14753644885468
aF6.2425174582198366
aF5.0992227395818333
aF4.0819415714779517
aF4.705089724708138
aF18.731556729014226
aF9.1066867154512607
aF4.8049457497988612
aF7.95760450164547
aF7.95760450164547
aF4.1618402126995733
aF10.154904617358664
aF11.143773403186479
aF4.0488415198027354
aF23.311730956737264
aF6.1865048176830157
aF6.1076479044691112
aF7.2943714912996143
aF8.8361316657127986
aF4.3921172390394361
aF5.9894401820011467
aF7.9933733735856833
aF4.0241200683160514
aF9.1034180655656485
aF6.8092913126077832
aF6.126412104725091
aF4.1247597893754886
aF4.1688536229285802
aF4.0424422222407941
aF4.4515971334188151
aF4.70754528467819
aF6.9564662846807863
aF13.337966787172519
aF7.4881404667874847
aF4.3663938573040468
aF4.0505403175352228
aF6.72881677260429
aF6.9913283431313857
aF16.707017336303778
aF16.818277004366493
aF6.1290409732793876
aF5.1986854979596657
aF9.4774119711181726
aF16.775828619116538
aF25.078894261697613
aF4.6823000107285822
aF5.0674194504488881
aF14.377051044605579
aF10.8587618220933
aF5.2518379960591233
aF11.722024569380295
aF4.1155466161909828
aF4.1219921371165142
aF5.8403177247181475
aF4.2055519703529498
aF5.9664237177243287
aF7.5925504644235318
aF4.1251249693233483
aa(lp26
F5.7975856493418414
aF5.6894807620487668
aF20.228691035221125
aF5.2015404720880856
aF7.604521758055121
aF6.2539259219271912
aF8.0735731204946948
aF5.8352000711084457
aF4.8318188859935134
aF5.9414227291524284
aF6.0833597469993919
aF9.4288961356268146
aF10.013803862961922
aF4.1613530684818727
aF5.0411373931923613
aF5.7799971479700787
aF6.7909343021163693
aF10.028821449198887
aF8.1336815771541353
aF5.1123683356230316
aF4.817716568837497
aF4.8354000205130774
aF4.2825364191306647
aF4.0703149385397381
aF8.8464371692682562
aF7.8755731148656878
aF7.5329209740634582
aF5.389649703054161
aF14.693386117335528
aF11.21492040797898
aF12.6922929682394
aF13.759792049651139
aF9.1842608612764138
aF4.0272421396273046
aF7.4594513765081274
aF5.1989214423971504
aF5.523970136288348
aF19.955415057759126
aF5.4648961371272122
aF4.6481452837032577
aF7.9634914955251048
aF5.7762134993174783
aF10.7393454890491
aF5.9445749123397178
aF5.9935538661876748
aF8.1976082621358302
aF4.2979442775687318
aF9.5083185499444909
aF8.138939124040931
aF9.8498128007538526
aF8.6816442759181456
aF7.1144513753854284
aF4.4616689356845711
aF4.4649341198958723
aF10.290098024920312
aF5.7639329915465112
aF7.8016691495231214
aF5.1579669380822395
aF6.4647926103748574
aF5.4582184087687295
aF5.4230241201651168
aF24.298611115346002
aF14.502113886657341
aF10.452704375179341
aF8.8357443656199024
aF7.1914423007817589
aF4.9123525669819514
aF6.9302659797500183
aF15.000671990191449
aF4.1219921371165142
aF5.1215739416887542
aF6.0918014027580121
aF70.257809000386104
aa(lp27
F6.2159865664541343
aF14.268049130543773
aF5.4635787262200068
aF9.1017657652929245
aF20.204781142871497
aF9.8955361125048711
aF8.1004872356059252
aF7.4800624857147255
aF4.7253280027777862
aF9.272166969460919
aF4.1772885462061566
aF8.1095579565920701
aF4.1379244142003699
aF5.6745173741327974
aF13.070199230133809
aF5.7879446078702586
aF26.452100021533184
aF13.594009333835629
aF4.5769403585353956
aF4.2672600873771884
aF8.014754753596236
aF4.0053644989841182
aF4.2255584787277485
aF4.6080286421209387
aF5.1123683356230316
aF5.7462227257879022
aF5.9295966328029959
aF9.9225565967738873
aF4.6741677723181283
aF8.3313997265443618
aF7.2801459399482411
aF6.8603111721189691
aF8.5830952501761146
aF4.4365292213629743
aF8.8464371692682562
aF4.9210202556496796
aF4.61086172749296
aF4.8182848862041112
aF4.0519608194585253
aF5.4412008009062944
aF6.1764456001049233
aF12.6922929682394
aF11.21492040797898
aF11.387298334337729
aF22.727794802795742
aF6.5734115422465891
aF6.6404053443259405
aF5.3267093971773605
aF19.265717400078685
aF4.1050013198934465
aF5.2495393216074149
aF12.042079121300544
aF4.4406379196306318
aF7.2160018294513737
aF4.7220974208806865
aF5.0992227395818333
aF6.7120286455462939
aF5.1158395159640335
aF7.4193046382007566
aF6.6997309037029353
aF4.5174928248239468
aF7.2269677923753903
aF6.0819259699777604
aF6.99734251227747
aF11.516249299210088
aF4.2556604941571123
aF4.3126275896596695
aF7.1621623421041676
aF26.598149028043466
aF6.4218005787766259
aF5.4839025552944634
aF5.9410597027482748
aF4.4499846990741316
aF4.107548960972025
aF4.5485543870204737
aF5.373058775575049
aF11.510472159217699
aF4.2058709227302415
aF9.7315858037110345
aF9.4043042178116991
aF4.2552305670366195
aF10.20541380410107
aF7.3638002089236494
aF6.9564662846807863
aF5.1846785639113548
aF4.0702563046789351
aF21.607661994632636
aF15.964142669502948
aF6.9654572531467629
aF5.0159454393173917
aF4.1881935584557155
aF4.1881935584557155
aF6.2184233679875121
aF4.2592064208250662
aF14.202067071537968
aF9.6663354842960985
aF6.8045931890010678
aF14.181822566717692
aF12.57180755147408
aF5.9438356990550147
aF4.6238707791220524
aF5.7048466146717089
aF7.2141282492185503
aF4.4616689356845711
aF4.1809322189455145
aF4.6747253170640448
aF6.6547972090447161
aF4.2983731781702943
aF5.3129434428494875
aF8.934180766909833
aF10.113023698529947
aF4.3449622911377617
aF4.2482199955323381
aF6.4800395760266269
aF4.9205876874593741
aF6.3207558686813119
aF5.2169860139801756
aF5.7521568348840475
aF5.0194326354770737
aF6.9704105023300258
aF6.7106801698189216
aF13.950997409205172
aF4.0378214705908277
aF5.1018444264646909
aF5.0661868148846878
aF6.1201116287628636
aF8.5721909766565574
aF8.6127130266090717
aF4.8415647132072479
aF9.373743696210795
aF5.5793853766250123
aF7.3850854974684879
aF6.3947978851808056
aF8.0823544009246433
aF4.2966649100023773
aF9.5249692892853801
aF12.07630284079756
aa(lp28
F4.9686470005722576
aF4.8040939500348614
aF7.0386241805124508
aF5.4006304847807911
aF4.3440566338209994
aF9.8960066482082709
aF4.1772885462061566
aF5.8352000711084457
aF13.189252525298485
aF6.6690740738154659
aF4.1433835951050106
aF5.0411373931923613
aF4.8677198548431946
aF34.456453332779546
aF8.4950015709308175
aF4.1427833464231867
aF4.8040939500348614
aF4.7154936213341188
aF5.4312361106998734
aF6.693020605259866
aF4.2799066295398944
aF7.406003711530694
aF5.6792676030966476
aF4.2867187773281046
aF9.9225565967738873
aF8.1573965900373935
aF4.8490120386517148
aF7.0791988479100283
aF9.2660605856328999
aF11.406733700065075
aF5.0411373931923613
aF4.1433835951050106
aF4.3530691338672147
aF4.5793816127612956
aF4.9210202556496796
aF5.9080382448019648
aF4.4232355308501212
aF21.552868452761487
aF5.5793394512257457
aF26.942821520683363
aF9.6032630554745069
aF13.708588115268398
aF31.468534890676658
aF7.1458253533718477
aF5.3048304368587296
aF4.5268654927233705
aF4.7385459782979922
aF4.1978971083210759
aF4.6381462391939863
aF5.1157517012852622
aF4.7543679613872598
aF5.9093644861602002
aF4.5712362468347578
aF4.5411019613728172
aF5.8036986478456782
aF8.0727816221961319
aF5.2621985932881543
aF5.2499887358753412
aF4.4917035924250115
aF19.885141191083335
aF5.4671232251944701
aF11.794060010570988
aF4.3126275896596695
aF4.2656609655588795
aF8.1096249340262538
aF5.8055394598321985
aF7.1144513753854284
aF5.9935538661876748
aF4.207143459861868
aF56.549714642273386
aF4.5411019613728172
aF4.9570489812283816
aF4.0102838976513766
aF4.3261441355156407
aF5.3177759401019813
aF12.74094092155508
aF4.2623177671355634
aF9.6081785065505763
aF8.0538623743898086
aF14.314634733022949
aF10.474003089559005
aF4.4361999975226354
aF5.4230241201651168
aF9.1344104213759323
aF10.20541380410107
aF8.7073139428327408
aF7.6301527625322549
aF4.1881935584557155
aF13.209385055655702
aF7.1144513753854284
aF4.7912202219281426
aF4.893113076454064
aF19.56190307498877
aF10.224598892352638
aF10.071151280278158
aF4.0424422222407941
aF4.3640238440025598
aF7.9305626219561418
aF4.2733415939234476
aF5.4301523427044316
aF4.1247597893754886
aF17.782127597252568
aF6.3137705303630867
aF7.0080988025821824
aF5.288089118358613
aF4.025747629586732
aF6.1637608508352715
aF4.265513667095524
aF5.8134769884708817
aF4.8315164704801301
aF11.455823621180016
aF7.2304588481413745
aF4.4917075194196059
aF4.8844394836026659
aF14.137547881084025
aF5.93230778808433
aF6.4324890536190367
aF7.048978869702033
aF5.0801018510667548
aF6.8815625539056384
aF6.473649375899285
aa(lp29
F6.5384847892741647
aF4.1682957261726941
aF18.93864488084688
aF4.7852456990948227
aF4.2799066295398944
aF4.4599381029853546
aF9.6682852753042852
aF9.5160200828089661
aF4.2675248545354592
aF4.5776278929530871
aF4.5569833513568057
aF4.8354000205130774
aF10.55166483834244
aF5.252272369644345
aF7.0172934406503771
aF4.2559196946679378
aF10.369975876697584
aF6.5728894594827905
aF6.2691820049425928
aF15.590788259947828
aF6.0233886901266231
aF6.7064142277131822
aF4.0185429750618766
aF7.1709061108957286
aF10.253930067318009
aF6.6483469596483316
aF4.1611850146384199
aF9.3033384911862811
aF4.3901391043262947
aF5.7074177389781848
aF14.091487215385968
aF4.0065028485850291
aF6.0105243024644892
aF8.4593472112673211
aF6.0078874293605509
aF5.0781699722404596
aF7.6029762103177063
aF4.2108103645221604
aF12.042079121300544
aF9.6032630554745069
aF4.3695564590178719
aF8.6493142413098383
aF8.140933895706695
aF4.8339431239839143
aF9.4982656420038438
aF4.9344904989605283
aF4.2895063735254695
aF8.916214191860746
aF4.8730769674185694
aF8.1573965900373935
aF4.1196661480248338
aF4.2622781548504065
aF5.1903679295633367
aF4.1866480009427676
aF5.4442748744085065
aF5.6152555976533876
aF6.6012476349791882
aF4.2850250667990366
aF10.854748507147875
aF5.5931969799986661
aF4.9262644839199297
aF14.167653515416589
aF4.4704576588612497
aF4.0102838976513766
aF7.603672474702023
aF10.433341052076926
aF11.319305715918247
aF6.7343825220528757
aF4.6046379267249362
aF4.1715025710201985
aF14.05156675118036
aF6.8388169226382018
aF5.2442867796863624
aF5.3553841702991036
aF7.3876361596734732
aF4.3329679903060025
aF25.807156892373627
aF16.971863474096608
aF6.1786326451687756
aF4.7912202219281426
aF6.9654572531467629
aF7.0923953815829464
aF5.9935538661876748
aF5.1158395159640335
aF4.0934357324977668
aF4.4819859781360023
aF5.8261805195423975
aF19.799163625417989
aF5.2651838495251582
aF4.3075586371744095
aF5.523970136288348
aF5.9529985038438866
aF4.8062424388400302
aF11.069919806275848
aF6.7936198564447778
aF4.1661495343337807
aF16.501659075764103
aF11.677370960537388
aF7.9305626219561418
aF6.6877904709930789
aF4.7391022302342378
aF4.0505403175352228
aF4.0505403175352228
aF4.0505403175352228
aF6.3137705303630867
aF5.7101507562409495
aF4.1861561790517783
aF7.2443756823246162
aF4.1987683925001242
aF15.000041165737516
aF4.2660754870787585
aF5.2735709635246479
aF4.92118108736544
aF6.2311194156726915
aF5.9935538661876748
aF5.5793853766250123
aF5.0980022872578843
aF6.6246137825247047
aF5.7187980525312163
aF6.6851659483896384
aF4.569669990052688
aF5.0159585204136974
aF9.6247205847615902
aF4.1962712247090366
aF11.290313010099709
aF12.756939434928473
aF20.819809591196019
aa(lp30
F5.4608890213796784
aF4.7253280027777862
aF4.5699685679428157
aF6.5850499718579201
aF7.0386241805124508
aF12.145026798669377
aF14.680580415023817
aF4.6178352162596674
aF4.3783650407881112
aF7.5156302059647544
aF4.2799066295398944
aF4.6632999085509823
aF4.1044273725821085
aF4.0662843505465567
aF5.0411373931923613
aF6.6664628629557185
aF4.3568605528665838
aF10.330908191916116
aF16.530056806885511
aF10.117751536349719
aF7.1870301268650962
aF4.1814328020330294
aF6.7871624821053516
aF9.3338443065900663
aF6.1688359839310749
aF5.0119906773164331
aF4.4793152875927973
aF6.0918597955741696
aF5.0168017209837643
aF4.982896841450799
aF6.0266633379853651
aF5.0146869143120369
aF11.601346723313036
aF8.1176705823301631
aF4.207143459861868
aF5.1158395159640335
aF4.0934357324977668
aF4.2867187773281046
aF4.6381462391939863
aF8.2087480578692436
aF4.2894653787354855
aF7.6393142350722281
aF4.1459796246158334
aF7.4574926598899225
aF4.4571758446369572
aF15.107827375292548
aF22.548870582006998
aF8.9662542554594076
aF16.146474197585885
aF4.5765804694168324
aF6.3706329530104568
aF5.7945044827113321
aF5.4648961371272122
aF6.3336421635093956
aF5.8181486023021289
aF9.7491444994227834
aF15.091125146153885
aF4.207143459861868
aF7.8947758585978534
aF5.0411373931923613
aF6.99734251227747
aF14.323540683364229
aF6.9008719917903356
aF12.085922964662203
aF8.7908745662342511
aF18.721726894858207
aF7.7310046750762638
aF4.6573463143532621
aF6.4679325574928299
aF4.5268654927233705
aF4.1618402126995733
aF5.0398469952086984
aF4.569669990052688
aF5.6455914614077329
aF10.857177227532574
aF7.9497407258254444
aF7.6764158894433479
aF16.30150139523451
aF4.5584133125928474
aF23.069077621855676
aF31.967269017834241
aF5.7359486485040918
aF9.1034180655656485
aF6.5288990588958313
aF6.9008719917903356
aF5.5022132860808028
aF5.0558543602089543
aF5.7939945970028504
aF4.8461147852092523
aF4.1242495838487088
aF4.6532918956469587
aF18.300960933301212
aF4.3444004481017942
aF4.6061571452314922
aF4.1147441666899045
aF6.0808373130960831
aF4.0378214705908277
aF6.6547972090447161
aF4.7086903863475555
aF36.986664966870663
aF7.5474037549633124
aF15.189288257215303
aF4.3731848106444247
aF5.9797944675512369
aF4.9869488181290293
aF4.6125321975538043
aF10.19084984254836
aF4.9601438375970162
aF16.11014341929868
aF5.3342701291555912
aF9.9435410520100191
aa(lp31
F6.0156287117386711
aF5.4224052860347456
aF7.604521758055121
aF9.0957387431662013
aF7.3221739843681917
aF4.1611850146384199
aF9.7036762108424153
aF5.0411373931923613
aF4.9798524982485901
aF5.7289936430579758
aF5.5390262571660376
aF5.0497467644935057
aF4.4512447357936509
aF4.7114718664080328
aF7.5250748713005464
aF7.8755731148656878
aF11.051816984052735
aF4.3596988587708818
aF5.7751604284527929
aF12.389264196105373
aF7.976923319747609
aF11.21492040797898
aF5.4536435141651047
aF6.6958670032209451
aF11.20111230131698
aF4.5968953716909198
aF12.042079121300544
aF7.2147650265638248
aF4.7140778836410719
aF4.7527567373765436
aF5.7359486485040918
aF12.659854019169913
aF13.006724970213085
aF8.9300076097118364
aF5.6127683062947256
aF8.7950409200650199
aF7.1541752830272429
aF4.1411209508618212
aF5.8055394598321985
aF4.6182740447882651
aF4.3068123371774902
aF4.1888488382724773
aF5.5166414101230643
aF5.5420784473412823
aF4.8182826441401687
aF6.1637608508352715
aF7.6243951328866046
aF4.5698119265850892
aF4.0051341028932086
aF4.3826477892147029
aF4.1936027510310403
aF5.062869859397102
aF5.7581840294257995
aF5.4908151376047662
aF5.1331166616381907
aF4.8266942684334939
aF13.034908316796034
aF27.399374686909866
aF6.4154855860289004
aF5.1215739416887542
aF6.0918014027580121
aa(lp32
F8.8980523626447194
aF17.4117187617532
aF4.8299191245348254
aF4.8318188859935134
aF8.8434506638228925
aF7.3221739843681917
aF5.7279194344012438
aF5.9339641592411212
aF8.8434506638228925
aF4.1877412092922555
aF4.0862979027942004
aF5.4406071065809272
aF4.5518240810145514
aF10.733846870381029
aF4.1228604716895205
aF4.3593652138949182
aF19.47489782730289
aF7.0172934406503771
aF9.6128427376573029
aF6.9831766459523692
aF6.531645292299018
aF5.672157509489324
aF8.1336815771541353
aF4.0662843505465567
aF5.0411373931923613
aF4.1965359713487231
aF17.099618142897867
aF4.3522449756681425
aF4.0065028485850291
aF19.38129452385332
aF7.805112471357134
aF5.087161193381661
aF4.1222328298008648
aF9.2809577845474571
aF9.033949867457153
aF5.4910995607322199
aF9.4983610818264026
aF4.0519608194585253
aF4.6085232388865052
aF4.4208765516953363
aF4.3660384234276179
aF5.350586949343537
aF4.662690641064394
aF4.3593652138949182
aF7.0786647671914977
aF4.1433835951050106
aF4.5385266185538136
aF4.3257403127043403
aF5.3696546970255952
aF8.8921346365083025
aF4.0798779303262478
aF6.1764456001049233
aF13.759792049651139
aF4.9044093250154788
aF4.5174928248239468
aF5.4536435141651047
aF5.109138588028074
aF8.4393444543695537
aF4.3183827675842732
aF7.6302069137086885
aF6.8834455985143848
aF4.7442646196487885
aF5.4191204154045494
aF7.6003327575271769
aF7.6903309124729589
aF4.816849460362306
aF6.232130594288094
aF16.609119603053259
aF4.3126275896596695
aF5.0578418374944221
aF9.3427222405145045
aF14.663085584801287
aF5.1402533481756194
aF5.1402533481756194
aF4.0435088639573991
aF26.281287630658234
aF5.611924220294739
aF17.492108309541905
aF7.0636081938817483
aF4.1111528892708549
aF4.3784137065627959
aF14.501150472705604
aF7.2250781138677524
aF5.9410597027482748
aF5.0411373931923613
aF6.99734251227747
aF17.070657689021402
aF4.2673505233456197
aF18.193261308255373
aF20.994621447086004
aF5.373058775575049
aF4.1411209508618212
aF4.6630518434124841
aF5.3553841702991036
aF4.7051896823473243
aF6.4908618382378904
aF4.1866480009427676
aF4.0946643675832348
aF5.0100207031349058
aF4.4964486079911126
aF4.8973062217356755
aF4.7226048437066623
aF4.6282253372732782
aF10.287479756814065
aF4.4494862102520756
aF5.5166414101230643
aF5.5420784473412823
aF4.9502159404179196
aF5.3973762167683503
aF5.6512556880473568
aF7.071771717985996
aF4.0234066372055111
aF10.254533420410482
aF4.4672908557260627
aF4.8182826441401687
aF7.9894191554707561
aF5.0100207031349058
aF5.1351297216115341
aF4.39101076827518
aF4.1156358179377861
aF9.0055506751733176
aF5.1840368551434608
aF15.248822786534845
aF5.0478529381207409
aF4.7391022302342378
aF10.071151280278158
aF5.0663197578234787
aF14.582921882880555
aF5.0700457341165759
aF4.2008227474853328
aF12.551733113328154
aF10.027285345683083
aF4.4528176226754965
aF4.9372237434840756
aF5.7639329915465112
aF17.567806862992313
aF4.4528176226754965
aF4.2232984611136146
aF8.6127130266090717
aF5.5290842059074112
aF6.112183109621995
aF5.7003414827374712
aF4.0378214705908277
aF5.1503429802705227
aF5.2169860139801756
aF5.60486979672811
aF4.3565594563499417
aF5.2059868256453257
aF12.07630284079756
aF5.5588386014240712
aF4.92118108736544
aF4.2655309783870123
aF5.1986854979596657
aF9.4774119711181726
aa(lp33
F4.2799066295398944
aF4.3778603726598107
aF11.921076485505527
aF5.2570271912074844
aF11.341063318933806
aF5.2297458769869714
aF16.130697796910852
aF17.813507177442002
aF4.0102838976513766
aF4.7140778836410719
aF5.6429858935841501
aF6.3567329997912339
aF5.1283199197578995
aF6.693315389167168
aF7.0172934406503771
aF5.7074177389781848
aF6.4474868856199379
aF7.0791988479100283
aF4.2777298050228723
aF4.1433835951050106
aF7.386052361872089
aF4.2935465747079604
aF4.4560766540420502
aF6.0078874293605509
aF6.0105243024644892
aF5.4312361106998734
aF4.8295030721605485
aF4.2108103645221604
aF13.759792049651139
aF12.6922929682394
aF7.7493609215876944
aF8.6493142413098383
aF4.207143459861868
aF7.060800507539895
aF6.5653159326349595
aF8.5659643725278727
aF4.2097424502570036
aF4.1365533908667871
aF8.0040246117277718
aF4.2603033184489902
aF4.1178016999797364
aF7.0519399554688604
aF8.140933895706695
aF4.2647346209240879
aF55.828377615580834
aF5.4442748744085065
aF4.9455227087561582
aF5.4442748744085065
aF10.731637904096427
aF6.6965678222030363
aF5.908263238640366
aF4.6710996776202478
aF11.143773403186479
aF4.1196661480248338
aF4.7396266577646804
aF10.48304052221016
aF6.3922160626555637
aF7.5776032654526517
aF4.5268654927233705
aF4.4672908557260627
aF4.5793816127612956
aF14.167653515416589
aF6.677275149411102
aF4.9740408229388038
aF4.3369141044734079
aF7.307587589083596
aF6.4305264021292885
aF6.9574295986024879
aF4.2381263968504967
aF7.1144513753854284
aF8.6582431279191496
aF13.209385055655702
aF4.6313910165759324
aF7.4607099387932863
aF7.2234411004818071
aF5.8261805195423975
aF9.7422805207555871
aF5.2651838495251582
aF5.6152019160262228
aF5.6512556880473568
aF4.5225364112389173
aF8.4258815362116195
aF4.6705000257982476
aF19.544608734541889
aF6.7407082873369717
aF7.2060197322698372
aF7.9595742560935001
aF4.1661495343337807
aF6.4515005679128876
aF4.2555555106285254
aF4.3075586371744095
aF5.9064125644038796
aF14.64657943956675
aF14.60768771489127
aF4.0193210868669382
aF4.1799946693520269
aF7.6003327575271769
aF4.0378214705908277
aF6.4177228997630209
aF4.9044000896074351
aF6.5936050214580106
aF15.951436122938489
aF4.0989552323410194
aF5.1503429802705227
aF7.336606915420262
aF4.3197523059196072
aF5.666774698809121
aF5.4131774967502793
aa(lp34
F6.7444163538925181
aF8.266432157637837
aF4.936021039015607
aF4.611895065981777
aF7.673982559576487
aF4.9975495513414785
aF4.3660384234276179
aF8.9352762325765553
aF5.3318699483035914
aF7.2772749996859503
aF5.8963382157669599
aF13.937942194118904
aF6.4355624700929699
aF6.9920022843325995
aF8.5503929819712425
aF4.0937998772684097
aF5.7014111459427852
aF7.1364779343423059
aF5.7487620147378209
aF12.710708710711842
aF8.5061866090013893
aF14.215584453260746
aF8.1023139681106642
aF5.4141650253176374
aF5.2204258519793427
aF4.1136900856576588
aF9.2809577845474571
aF7.2132775150738695
aF7.5064683479639811
aF5.0205753863625517
aF6.1688359839310749
aF4.093447046506256
aF7.1458253533718477
aF6.5764360483767854
aF4.3593652138949182
aF4.980326173643423
aF5.8705602707371298
aF6.2814402577870538
aF4.7442646196487885
aF13.70471048571757
aF11.21492040797898
aF7.6393142350722281
aF4.6218153675627178
aF5.0127455519201618
aF4.9512039838558479
aF7.3451040755276296
aF9.2725779618650108
aF5.1458215420879441
aF11.20111230131698
aF4.4717743637749834
aF4.6117472070852576
aF5.2495393216074149
aF4.0084309125830941
aF4.9455227087561582
aF5.748421234909447
aF4.2556604941571123
aF5.4339132936756585
aF8.9581150952617463
aF5.5568467371199688
aF4.6361360017772313
aF21.327988102572306
aF22.086251983860116
aF8.439161314277456
aF11.796770392116345
aF4.6381462391939863
aF6.6958670032209451
aF4.2979442775687318
aF4.3561056685448492
aF7.6692358294426981
aF7.936265709233588
aF6.4515005679128876
aF12.239505291897231
aF5.3820493499520978
aF8.3918036570863777
aF4.0234066372055111
aF4.2466384577322032
aF21.73837488480433
aF5.2355530160028323
aF4.0051341028932086
aF4.1442406836525576
aF7.259526382351094
aF6.481665744355265
aF4.9361373270727427
aF4.3273311883188796
aF4.6517534611664928
aF6.9704105023300258
aF8.8993201414615957
aF5.2627427022336235
aF4.4917075194196059
aF12.215020580536304
aF6.4556178561540492
aF4.0193210868669382
aF4.1149938014220879
aF4.3260910233001724
aF5.1553923305430089
aF5.0467913768221138
aF4.6083712582492069
aF4.3197523059196072
aF7.3493328711554966
aF17.381234461726173
aF6.7989422460584388
aF7.1911160026957752
aF5.5508342639726465
aa(lp35
F5.4392556050580483
aF8.0222501948673823
aF5.8352000711084457
aF4.1883859329156259
aF7.8407477792587343
aF6.8979533475208257
aF7.284789994195549
aF7.2183470930304523
aF6.3462156464017028
aF4.1772885462061566
aF4.5478860901451661
aF4.8354000205130774
aF5.8963382157669599
aF6.8163150440449556
aF5.5212827578302779
aF5.9080382448019648
aF6.0775871988099084
aF4.4661183556375619
aF4.8220708289053675
aF5.7879446078702586
aF7.7662889928998027
aF4.3593652138949182
aF7.9374222357449042
aF5.1833465184944032
aF5.4910995607322199
aF5.0168017209837643
aF5.0168017209837643
aF4.4337233108085101
aF4.379721506296093
aF5.7289936430579758
aF4.4002101340978896
aF6.55495039214847
aF4.3183827675842732
aF6.638812317059589
aF7.1458253533718477
aF31.468534890676658
aF4.6381462391939863
aF6.0118395746926083
aF4.4642081928918245
aF5.1366002268674151
aF7.5250748713005464
aF7.4574926598899225
aF6.3011138072917348
aF4.3073381489279186
aF11.185858197212454
aF4.002901355632777
aF5.0411373931923613
aF6.3706329530104568
aF5.3014161319102371
aF8.9243606818652239
aF5.4589420940182265
aF18.724772700410909
aF4.3778538681549577
aF4.1022137165063013
aF5.8240729968920846
aF4.2592064208250662
aF4.861518762867135
aF9.7969304364840184
aF4.5411019613728172
aF6.0027080841717115
aF4.1866480009427676
aF8.4905432804198995
aF4.492388981392601
aF6.902480629497731
aF5.0398469952086984
aF5.5221030088518503
aF4.2615590840976481
aF5.493056420099947
aF6.1459997952545891
aF4.11680535064162
aF6.7208138835871125
aF5.5022132860808028
aF6.112183109621995
aF4.4314812527914142
aF8.7560362326887855
aF4.8457407928277405
aF5.8237653080723604
aF4.8424536295132867
aF4.9899656468127489
aF8.6417188396258098
aF6.2792899819361807
aF4.4012142416934239
aF10.290098024920312
aF7.4881404667874847
aF5.6127683062947256
aF5.4088055010514609
aF4.2555555106285254
aF4.8204069663249776
aF14.79619240083786
aF4.3808049013394736
aF4.6270388449287054
aF5.5199343337367885
aF5.498789139672482
aF4.0827650303516343
aF4.1387579185251298
aF4.1688536229285802
aF4.5202052973704916
aF4.2482199955323381
aF7.2131956585134063
aF4.0378214705908277
aF5.2530563714707057
aF4.4704576588612497
aF10.504258031021864
aF5.7834684658485855
aF6.3945454563548054
aF4.7037325873356508
aa(lp36
F5.020774959605518
aF8.5729571851317132
aF4.4270117600955388
aF8.006365066122541
aF4.8140891500579528
aF7.9802885835708253
aF5.0119906773164331
aF7.0172934406503771
aF8.2787788611068081
aF5.2570271912074844
aF12.145026798669377
aF5.8765155287326962
aF4.5906902645990044
aF7.8731417268534329
aF4.2108103645221604
aF4.8187817016929557
aF9.0088940150126291
aF4.3660384234276179
aF9.807125147034327
aF4.9455227087561582
aF4.5636647364175076
aF5.1993653532246356
aF4.3073381489279186
aF4.4208765516953363
aF4.6381462391939863
aF5.4442748744085065
aF7.2481013523242837
aF7.2605984046215752
aF7.5767052763270701
aF7.0028048944844308
aF5.6384810463370059
aF4.2068157513257347
aF7.603672474702023
aF5.9932068648013797
aF6.0657458352174274
aF11.601346723313036
aF14.501150472705604
aF8.4963907970682406
aF7.0852037056248207
aF4.4537835082033226
aF4.0764018703298035
aF4.569669990052688
aF14.469387233080994
aF5.1158395159640335
aF4.8182826441401687
aF15.530049903256682
aF7.0149063809896433
aF12.195581501603915
aF4.6674699259619672
aF7.4639035906775604
aF5.6512556880473568
aF6.7601690227686078
aF8.4258815362116195
aF5.2720643349103966
aF6.126412104725091
aF5.2558616066300061
aF5.8590915966677244
aF5.4581258993976718
aF4.1247597893754886
aF7.0297043140539586
aF5.8295672357630082
aF8.5295857151313328
aF4.8332779891117283
aF4.3731848106444247
aF5.8822820954572563
aF5.3850525221915291
aF9.7422805207555871
aF6.9135417383452022
aF9.9894320129044658
aF6.6246137825247047
aa(lp37
F5.3028770951587685
aF5.8206869644093473
aF4.8902588439765964
aF4.8035739595456164
aF4.1611850146384199
aF6.3555887182073434
aF4.1228604716895205
aF5.0411373931923613
aF4.8864776735751718
aF6.1231704112472833
aF5.1539060143204551
aF4.2902664679589151
aF4.7208933810475475
aF6.1346704903921569
aF4.5428485123894404
aF4.1955200429722623
aF5.4648961371272122
aF5.748421234909447
aF5.947897270456167
aF5.9227853764551455
aF5.487355050036868
aF4.7527567373765436
aF8.439161314277456
aF8.216455105984565
aF4.2225619131094092
aF7.045195743859594
aF5.3541156446700171
aF14.506590853740422
aF5.6155863570682953
aF6.1625380615695136
aF4.4813698047928199
aF10.364134235476691
aF4.1250143521376561
aF4.0440508479702206
aF4.0424422222407941
aF4.1688536229285802
aF6.6732071033915652
aF4.2676936679524715
aF5.0695815456224125
aF7.0275146794658383
aF9.653236269597528
aF4.453579057600237
aF10.155776877114235
aF5.5290842059074112
aF4.1514225937287819
aF9.3357685296065789
aF7.2857930607706862
aF11.971676488375699
aF4.0702711839840333
aF7.5475728795175598
aa(lp38
F8.5892631790255081
aF4.093447046506256
aF5.4140061603784773
aF6.3462156464017028
aF7.6884321793149129
aF4.611895065981777
aF10.935284892856458
aF7.2334561246615579
aF7.4597585126311685
aF5.8702494645531829
aF5.0411373931923613
aF5.7799971479700787
aF17.58557215932845
aF19.412397958329279
aF4.0430309692848567
aF6.6965678222030363
aF6.1231704112472833
aF9.5411368700603987
aF4.7853480799841037
aF4.3791147244492166
aF5.0168017209837643
aF4.1946744442512447
aF5.0531119094552537
aF4.8781343555817784
aF7.4574926598899225
aF7.1217868269388163
aF8.3760384226095965
aF4.3593652138949182
aF7.0786647671914977
aF4.1101037257036239
aF7.9990352755528882
aF4.3337248184546127
aF4.207143459861868
aF4.5744655821240414
aF8.4387949644201825
aF5.3296856883869594
aF7.936265709233588
aF4.8285144149689856
aF5.626521749321185
aF4.1111528892708549
aF6.0899662410768585
aF7.6003327575271769
aF5.523970136288348
aF4.7140778836410719
aF4.7059988075789789
aF7.1853375696641422
aF5.4648961371272122
aF4.3561056685448492
aF4.4410237800690311
aF4.3126275896596695
aF5.9932068648013797
aF7.6393142350722281
aF6.8834455985143848
aF4.6710996776202478
aF7.0519399554688604
aF4.0442213852319284
aF4.6644279926454431
aF5.487355050036868
aF9.4539686609807987
aF4.816849460362306
aF6.232130594288094
aF24.748494463997549
aF10.48304052221016
aF5.4312361106998734
aF12.267310250137594
aF4.1309362987606733
aF7.7297307431171589
aF11.455823621180016
aF5.3833203590955492
aF7.7402062542060861
aF4.6178352162596674
aF9.9717807333374466
aF11.477037586497289
aF6.734651687335969
aF7.95760450164547
aF13.950818782280194
aF4.4012142416934239
aF8.2885137484827212
aF7.0688626794381264
aF10.364134235476691
aF6.7601690227686078
aF10.830384868910329
aF5.7105369816447364
aF5.6176342221492206
aF5.9929071373539671
aF4.1428246694153472
aF4.1888488382724773
aF4.6705000257982476
aF5.5974284727233226
aF9.7002632751249394
aF5.2861975885465426
aF6.1806444901435498
aF4.1688536229285802
aF4.5698119265850892
aF4.0764018703298035
aF4.4798594851110636
aF5.2557341398928337
aF5.3129434428494875
aF10.256625732499781
aF4.2885527288265095
aF6.7791658728930742
aF4.8927895083610125
aF4.9917547071525092
aF11.829992453279672
aF4.6720233153863049
aF5.3716738728421092
aF5.695134078454867
aF7.8070755248351489
aF4.92118108736544
aF6.4821671498581672
aF5.0389630985978719
aF9.7422805207555871
aF15.75222353095662
aF4.0378214705908277
aF8.7744069543830676
aF4.9333734542739762
aF9.373743696210795
aF5.2169860139801756
aF6.5283350345674478
aF7.000112438607573
aF11.876237144733146
aF5.1828731170922993
aF6.8048065786418448
aa(lp39
F5.3403325946385394
aF7.0930357558256105
aF6.8107908498311076
aF6.9831766459523692
aF4.1346926606579189
aF5.5957739895442415
aF5.3620087112500272
aF5.8352000711084457
aF9.7036762108424153
aF5.5885231833368465
aF9.6725598778467017
aF13.248902193831583
aF8.4330620494906832
aF4.1772885462061566
aF5.9080382448019648
aF15.468967916140201
aF6.0216178582928563
aF7.3506872245248829
aF7.0791988479100283
aF4.142673436215631
aF4.4365292213629743
aF4.5846307835100504
aF4.3134840048322047
aF5.4910995607322199
aF4.4357260857748244
aF4.3660384234276179
aF4.0660945621758628
aF4.1433835951050106
aF12.710708710711842
aF4.184909476246375
aF21.385752201019152
aF7.2481013523242837
aF16.292824347295323
aF11.592651021926205
aF6.1376299495744817
aF4.7396266577646804
aF5.4648961371272122
aF5.4339132936756585
aF10.751175094469676
aF4.5069175945377538
aF13.73656276670971
aF5.626521749321185
aF4.4617381566867778
aF4.2325492310252386
aF10.364134235476691
aF4.0290214907400923
aF8.9623304316520773
aF10.364134235476691
aF15.441280785351864
aF4.8940818447026828
aF5.5679758862079538
aF5.1903679295633367
aF6.1459997952545891
aF6.2418693214711922
aF6.6911056047791249
aF4.1156358179377861
aF5.2557341398928337
aF4.0764018703298035
aF6.3207558686813119
aF4.1936027510310403
aF5.1331166616381907
aF7.0080988025821824
aF4.6170513730461096
aF5.695134078454867
aF10.071151280278158
aF4.9869488181290293
aF6.4033330722367765
aF10.155776877114235
aF6.9328484057092226
aF8.6307120199074454
aF9.2978902667720575
aF5.1503429802705227
aF4.3197523059196072
aF4.9481628172121788
aF5.3591724764524145
aF4.8776558415936719
aa(lp40
F4.6612373629688832
aF4.9790210315649688
aF7.2698308747793732
aF4.0065028485850291
aF4.133869566768027
aF4.5942853743831051
aF6.3988588406756861
aF4.3660384234276179
aF5.4312361106998734
aF5.1993653532246356
aF6.8550478562117476
aF4.2227828612838891
aF4.9399927505688481
aF14.086101475329372
aF5.9170315160001223
aF4.0442213852319284
aF8.6582431279191496
aF9.9717807333374466
aF5.3976280427781411
aF4.6045760997897105
aF4.4410237800690311
aF4.9044000896074351
aF5.9935538661876748
aF4.7506802484251409
aF7.2304588481413745
aa(lp41
F25.003945463922506
aF14.719925304177337
aF5.0692799966595885
aF7.673982559576487
aF4.9975495513414785
aF4.3660384234276179
aF4.8354000205130774
aF4.4512074680704075
aF4.1772885462061566
aF13.937942194118904
aF6.9239292912257753
aF5.7879446078702586
aF7.7983446370824083
aF4.3381214533704693
aF4.1222328298008648
aF5.0168017209837643
aF7.1217868269388163
aF6.3668630584127328
aF5.3478905909708132
aF4.3355310476356124
aF4.9576681124305537
aF4.1111528892708549
aF4.9656805190156774
aF4.1428246694153472
aF5.9170315160001223
aF6.0428391866267575
aF4.3572772276859695
aF4.3153825109777415
aF9.6548740790930054
aF4.1307463532586723
aF5.4648961371272122
aF5.5568467371199688
aF8.4963907970682406
aF9.2961251906445739
aF7.1649022549371182
aF4.6475899043728646
aF4.4322496933929614
aF4.4037040561106835
aF10.866434208423861
aF4.2068157513257347
aF7.3657769132738053
aF4.8049457497988612
aF4.6045760997897105
aF5.8587926518739408
aF10.364134235476691
aF6.0899662410768585
aF4.8762568354015912
aF6.8861023026052948
aF4.4952697608681014
aF4.8648059666703958
aF4.4037040561106835
aF6.1459997952545891
aF4.4314812527914142
aF14.60768771489127
aF6.7920847655176715
aF7.0080988025821824
aF7.8016691495231214
aF6.8458674967941207
aF4.2622781548504065
aF4.6532918956469587
aF4.3750915048797623
aF5.5231748183780383
aF4.9279715430585433
aF11.935129045478593
aF7.6003327575271769
aF5.0663197578234787
aF4.4704832596482618
aF12.240223650111744
aa(lp42
F5.4392556050580483
aF4.1682957261726941
aF5.7487620147378209
aF4.0248489949202551
aF4.1954692989427826
aF9.4058703955575282
aF12.145026798669377
aF5.2204258519793427
aF4.2777298050228723
aF4.3791147244492166
aF6.0233886901266231
aF10.402090135411786
aF6.8550478562117476
aF8.4169923117927041
aF4.0934357324977668
aF4.9044093250154788
aF4.1866480009427676
aF4.305218079111242
aF5.4066378970603637
aF13.374357298259014
aF4.5563419644547594
aF7.5767052763270701
aF4.7527567373765436
aF4.0102838976513766
aF6.3796256150766624
aF4.1274652265376659
aF6.7343825220528757
aF6.6382374489629212
aF13.73656276670971
aF4.1433835951050106
aF4.5906902645990044
aF4.7103585172284603
aF4.0819415714779517
aF4.705089724708138
aF4.8762568354015912
aF4.5429842668539351
aF6.8288939586730777
aF4.7928922276405359
aF7.0636081938817483
aF4.1111528892708549
aF4.1672556834087686
aF5.6152019160262228
aF9.1515463325767996
aF6.5288990588958313
aF7.7665926920932833
aF6.126412104725091
aF4.2945443350055257
aF4.0132250930726912
aF4.1156358179377861
aF4.8457407928277405
aF10.472784993009117
aF4.7928922276405359
aF9.2375520288379285
aF5.9064125644038796
aF5.2261300437103131
aF6.2181317528759692
aF4.4037040561106835
aF6.8908599383451232
aF7.1394586475775554
aF6.2348249253149532
aF4.6045760997897105
aF5.8830789981559946
aF9.8735885226813878
aF4.1403350452401639
aF5.4007859495480943
aF5.5095364194464427
aF9.0711833465302973
aF13.321936321967392
aF7.2067284279284394
aF7.0607861874312619
aF4.2316156584248663
aF4.92118108736544
aa(lp43
F8.7283555112101396
aF5.4931163100645612
aF5.6515316484008977
aF8.5503929819712425
aF5.4814303415978145
aF5.5323603087682471
aF4.3355310476356124
aF12.375629315162712
aF6.0418179796884672
aF4.3134840048322047
aF4.0918990207686754
aF4.1365533908667871
aF4.5609063521178825
aF4.1087878660510952
aF5.4420575714577772
aF5.5259303040132863
aF4.1946744442512447
aF4.3491488122292168
aF6.2351364824855864
aF5.3833203590955492
aF5.8352000711084457
aF5.204146331925017
aF12.822691036687701
aF4.2250822457079664
aF4.0234066372055111
aF4.3921172390394361
aF5.2341484308091424
aF9.7460765052169478
aF6.9008719917903356
aF5.5974284727233226
aF7.5096481252549552
aF4.4680895916885888
aF12.421760862497203
aF7.2143971067974348
aF5.3820493499520978
aF8.3550090560860255
aF12.313477267879277
aF4.0193210868669382
aF19.544608734541889
aF5.1133969274503528
aF5.8295672357630082
aF7.0923953815829464
aF5.60486979672811
aF4.8113904567771257
aF4.1836902726203107
aF4.6603726312820299
aa(lp44
F10.418600803303647
aF6.1309418552729227
aF6.6102352966212408
aF4.8010443627316164
aF10.943902638182349
aF4.6158054066887075
aF12.483046915547057
aF6.531645292299018
aF5.0531119094552537
aF6.2320230707663455
aF4.5744655821240414
aF6.0899662410768585
aF8.5848611523354066
aF7.7564566704714792
aF4.1715189585557937
aF6.7558089233903615
aF4.5609063521178825
aF9.3415627587394816
aF5.4536435141651047
aF5.3016431575280194
aF9.5295325152617636
aF6.6900834887463638
aF4.7051896823473243
aF7.6809766853098509
aF8.6275630591740367
aF4.4964896183877414
aF6.8962921929388727
aF4.1634460418845975
aF8.6417188396258098
aF4.6517534611664928
aF13.901296412332744
aF12.135727762359558
aa(lp45
F6.8765079140601699
aF6.5841313348739163
aF6.0251988907619918
aF5.1555306036543982
aF4.8010443627316164
aF10.047986485111963
aF7.8831347325049705
aF8.8434506638228925
aF7.1783259255024685
aF7.4597585126311685
aF4.3695564590178719
aF5.7289936430579758
aF11.306393193870065
aF5.4108745117294035
aF4.7853480799841037
aF5.5380668734223093
aF4.0401801134340474
aF5.3929865655317712
aF4.2255584787277485
aF6.2320230707663455
aF4.5481234753501596
aF7.3479187080501944
aF7.4091625689276626
aF4.0488896951955988
aF4.0561798005854826
aF5.7703547774439841
aF13.62562098171226
aF6.196019487626458
aF7.2723352109894179
aF4.1866480009427676
aF5.4536435141651047
aF5.3048304368587296
aF6.4322190084444877
aF7.7203780450902357
aF6.54864346796208
aF4.2603033184489902
aF4.5404705369750342
aF7.1832741874199328
aF10.830384868910329
aF4.6646287221794172
aF5.1391340494186721
aF4.7226048437066623
aF8.6341990054712312
aF4.4837129576515906
aF7.9637851254659182
aF4.1442406836525576
aF4.1634460418845975
aF4.7942923326372693
aF6.4280074266649194
aF5.8161243144784862
aF4.2769341930840312
aF4.4037040561106835
aF4.1156358179377861
aF5.4908151376047662
aF5.7101507562409495
aF6.5210415270759938
aF6.1531334533820825
aF5.4088055010514609
aF5.3129434428494875
aF4.8895911344493044
aF4.0051341028932086
aF6.4821671498581672
aF5.5290842059074112
aF5.0941452077204765
aF4.2655309783870123
aF5.7485513261728158
aF19.198184610390882
aF15.441280785351864
aF4.0403729013569194
aF13.901296412332744
aa(lp46
F5.6435372330159765
aF4.761194591258743
aF5.6141736209051967
aF9.1774429685940646
aF6.9078616977490697
aF11.675351857030847
aF7.1230103709899737
aF4.9975495513414785
aF6.2742958457381981
aF4.0269874099799576
aF5.2977044099805823
aF11.586899201659804
aF14.694646491462237
aF5.8609175715676827
aF4.8762568354015912
aF5.0401399844516277
aF7.1870301268650962
aF5.6141736209051967
aF5.8096872757222968
aF5.8950593605050088
aF9.8808248494470945
aF4.1136900856576588
aF12.145026798669377
aF6.9961189261739349
aF6.7904439422638347
aF7.6634787575313332
aF9.4143379915706049
aF6.511245720351738
aF11.911721134642427
aF5.4734292070046742
aF4.8553287088103758
aF4.4376551181709516
aF4.662690641064394
aF4.5860363521812531
aF7.158446858598225
aF4.0798779303262478
aF5.7020673195588216
aF7.1217868269388163
aF4.9670659054875017
aF5.3296856883869594
aF9.4925251714604002
aF5.8335506149408047
aF5.2442867796863624
aF6.4234110718327031
aF4.1715189585557937
aF4.093447046506256
aF4.5968953716909198
aF6.0078874293605509
aF15.642582780603066
aF6.643690452797415
aF4.1803419488999722
aF4.0065028485850291
aF6.99734251227747
aF10.577469584405691
aF11.04923923386481
aF18.912455833817198
aF10.797367357437793
aF4.8301538683204228
aF11.21492040797898
aF6.0899662410768585
aF4.881880201315397
aF5.1469050216182097
aF7.5345306992744661
aF4.3713174940355657
aF10.564832567403117
aF4.2225619131094092
aF4.4813698047928199
aF4.3960571923775973
aF4.7942923326372693
aF5.3833203590955492
aF5.9170315160001223
aF16.965722615859761
aF6.0619924437370329
aF4.6757811634731468
aF4.1439900253290887
aF4.3491488122292168
aF4.1672556834087686
aF5.3820493499520978
aF6.9773280150860018
aF6.0899662410768585
aF5.0515551260892551
aF4.893113076454064
aF5.6152019160262228
aF11.752932011653655
aF5.1903679295633367
aF6.0909766384118029
aF5.8681399527249596
aF4.7942923326372693
aF4.5241157298008403
aF9.4594824613169948
aF9.1066867154512607
aF6.3631252332167705
aF6.7407082873369717
aF4.0440508479702206
aF5.2948861636596973
aF4.4824160078498636
aF4.3713174940355657
aF4.6078587931152697
aF6.3631252332167705
aF10.170013728331792
aF4.3083145611048792
aF4.9793640674080422
aF4.8457407928277405
aF5.1917809787866958
aF6.7125986626891319
aF6.1125860390041709
aF4.453579057600237
aF4.0193210868669382
aF5.1226399032077712
aF4.0488415198027354
aF5.4007859495480943
aF5.4088055010514609
aF6.497782353639181
aF4.6083712582492069
aF7.2304588481413745
aF6.2534676752839005
aF6.3207558686813119
aF4.7501562589058324
aF12.07630284079756
aa(lp47
F6.8087989887057319
aF5.7014111459427852
aF5.7074177389781848
aF13.622996736023737
aF5.4814303415978145
aF17.571776684658929
aF6.2932191997721887
aF8.4797607636335055
aF5.4066378970603637
aF7.8166628056286243
aF5.6437781150441992
aF7.158446858598225
aF6.7192710543573639
aF4.5636647364175076
aF5.8990737848683636
aF4.1111528892708549
aF6.3288286844142796
aF4.0046153355134635
aF4.7527567373765436
aF4.3593652138949182
aF12.927249229979935
aF4.7942923326372693
aF7.3325166475836312
aF4.0819415714779517
aF12.523181983741878
aF5.1917809787866958
aF4.2647346209240879
aF8.2885137484827212
aF6.2974696697723971
aF10.364134235476691
aF4.569669990052688
aF5.6152019160262228
aF8.4258815362116195
aF6.3631252332167705
aF7.4881404667874847
aF12.421760862497203
aF9.9780550989407857
aF6.3631252332167705
aF6.3631252332167705
aF10.224598892352638
aF32.144157333039303
aF4.2555555106285254
aF4.3555852556076786
aF4.5837236671818093
aF4.9333734542739762
aF12.809018232742247
aF4.1962712247090366
aa(lp48
F6.6366682668534054
aF4.3449669207068666
aF6.8087989887057319
aF4.5421184791049427
aF8.1559589131697905
aF4.9167224097246631
aF4.3902186658232409
aF5.1846785639113548
aF5.4814303415978145
aF4.8762568354015912
aF5.0401399844516277
aF9.1754629526129463
aF7.1458253533718477
aF5.9170315160001223
aF5.6922495262060835
aF5.3929865655317712
aF4.5609063521178825
aF5.7703547774439841
aF12.6922929682394
aF4.1665146775119197
aF6.9071401802801233
aF6.6382374489629212
aF6.3637507698716433
aF5.5280925022301375
aF10.254708511144809
aF4.5069175945377538
aF13.418723098196139
aF4.1866480009427676
aF7.6185872089289859
aF4.4964896183877414
aF4.6248854201455529
aF4.3068123371774902
aF5.9857537880743905
aF8.9623304316520773
aF14.845577554616568
aF6.503039981874025
aF6.3011138072917348
aF11.230920860277678
aF4.0585232706990046
aF4.2370492102773625
aF7.6272385252649144
aF4.2979442775687318
aF4.1487641835429656
aF5.9064125644038796
aF4.2749307821789415
aF4.2316156584248663
aF7.5800189278020014
aF5.0941452077204765
aF5.501157831408829
aF4.4806496054669225
aF15.441280785351864
aF5.5231748183780383
aF6.690517200286962
aF5.1828731170922993
aa(lp49
F10.352558513653435
aF7.8786456024701295
aF7.4024115038336618
aF4.611895065981777
aF8.4306868569198201
aF4.4512074680704075
aF4.1772885462061566
aF4.0030878885495937
aF13.662265030358924
aF4.6901616009633926
aF4.4357260857748244
aF6.8385848088541792
aF5.6922495262060835
aF4.1653670838949495
aF4.9363834061851293
aF8.0211552282813727
aF4.1076705812020009
aF13.217732786885266
aF13.640049661577466
aF4.0862979027942004
aF4.2345044981589268
aF4.844579694282146
aF11.340508007385125
aF4.0686393868443034
aF4.2325492310252386
aF5.373631041423323
aF6.0899662410768585
aF4.3068123371774902
aF5.2341484308091424
aF5.5355096068534664
aF6.3631252332167705
aF5.850295614407294
aF4.0193210868669382
aF6.3815883874050314
aF4.4672908557260627
aF9.0121687976179246
aF4.2555555106285254
aF8.7789981822204588
aF5.1503429802705227
aF4.9333734542739762
aF5.60486979672811
aF4.1962712247090366
aa(lp50
F4.3965839791775352
aF6.7904439422638347
aF4.179704456411244
aF4.5208071752266292
aF7.000100364958314
aF6.8550478562117476
aF14.086101475329372
aF11.510472159217699
aF4.7739198561642908
aF5.4908151376047662
aF5.0663197578234787
aF4.3128746631606845
aF9.5254941492925127
aF6.391225018781995
aF4.2796955550739142
aa(lp51
F13.466608330105814
aF4.0592761414669809
aF9.3988513793986641
aF4.1044273725821085
aF5.6141736209051967
aF12.145026798669377
aF4.5153006150129897
aF4.4672908557260627
aF5.2385667348707283
aF4.3223504327541491
aF9.4927239485196111
aF7.2933653112527388
aF4.7168198017031742
aF5.3534554432659149
aF4.2255584787277485
aF4.5411019613728172
aF7.6302069137086885
aF6.2320230707663455
aF4.3575184569408947
aF5.1586816653106382
aF6.0657458352174274
aF6.7558089233903615
aF6.2494281699438545
aF4.8041856193728165
aF4.6987035904632677
aF4.4322496933929614
aF5.037683561221634
aF5.8352000711084457
aF7.6027605005510281
aF6.8092913126077832
aF16.965722615859761
aF8.5905504488505215
aF8.5144807277481682
aF6.8388169226382018
aF5.0515551260892551
aF5.1683931213640761
aF6.6957115031544703
aF4.4824160078498636
aF5.5588386014240712
aF4.1828353732513364
aF4.3951419319261902
aF5.6826491397699836
aF8.4258815362116195
aF4.9261947388833676
aF4.5241157298008403
aF4.7942923326372693
aF4.3634012183206181
aF4.0440508479702206
aF8.9581150952617463
aF4.0686393868443034
aF7.9598496163971468
aF7.9158300442292244
aF4.0224965879624364
aF9.1066867154512607
aF5.0700457341165759
aF4.7384771240521104
aF5.2508774896830914
aF5.9057930087162092
aF5.2843073586822982
aF5.9935538661876748
aF4.4672908557260627
aF5.3900483364978484
aF4.9002442847964289
aF5.2530563714707057
aF10.047963838561969
aF10.187651724971587
aa(lp52
F5.9722575640914499
aF4.8010443627316164
aF11.158720138626469
aF5.206153302416169
aF6.4474868856199379
aF4.6158054066887075
aF4.0862979027942004
aF6.2005929737214558
aF23.376146223600372
aF11.306393193870065
aF4.95238022176882
aF5.0531119094552537
aF4.5776278929530871
aF4.0401801134340474
aF4.5744655821240414
aF6.2320230707663455
aF6.027829342017796
aF7.1217868269388163
aF4.9941072159805344
aF4.5609063521178825
aF4.6834484514954156
aF4.61086172749296
aF6.8550478562117476
aF7.6027605005510281
aF6.9812914640849186
aF5.3820493499520978
aF4.5189594897695216
aF4.6184712428578507
aF4.1571165782664998
aF4.5563419644547594
aF4.8423686498321672
aF4.7942923326372693
aF6.112183109621995
aF5.6019281508239658
aF4.1156358179377861
aF6.9813512416541101
aF4.2979442775687318
aF6.4280074266649194
aF5.695134078454867
aF4.2749307821789415
aF4.2433470437552145
aF7.3565147809824154
aF15.49322076908371
aF5.5522253244701645
aF5.1828731170922993
aF4.1150742566426288
aa(lp53
F6.6690740738154659
aF6.2282632063051153
aF4.9975495513414785
aF10.013803862961922
aF6.531645292299018
aF5.6582940511333248
aF7.4597585126311685
aF4.9032406882921862
aF4.8182848862041112
aF4.0798779303262478
aF11.911721134642427
aF4.5744655821240414
aF5.4536435141651047
aF6.027829342017796
aF4.7140778836410719
aF4.1803419488999722
aF6.99734251227747
aF4.4617381566867778
aF4.093447046506256
aF6.2068159733765924
aF4.0065028485850291
aF6.99734251227747
aF4.0373694816558121
aF9.2961251906445739
aF4.2673505233456197
aF4.1433835951050106
aF10.507673879872488
aF5.7862700577644546
aF12.699074368331225
aF6.0619924437370329
aF5.5539865218886177
aF4.6848118295933574
aF4.1828353732513364
aF14.845577554616568
aF4.6178352162596674
aF6.6900834887463638
aF4.0440508479702206
aF6.1806444901435498
aF9.8689896761230784
aF4.1442406836525576
aF5.4955715759477357
aF11.829992453279672
aF4.3530691338672147
aF6.7343825220528757
aF4.4805818542312608
aF11.32098822402628
aF4.0193210868669382
aF9.2978902667720575
aF7.2486012279482495
aF7.6349820328443627
aF7.6138464434538626
aF4.1706040844106766
aF4.9002442847964289
aF4.7010045093499002
aa(lp54
F5.880018869449664
aF4.8490120386517148
aF5.7074177389781848
aF5.8840917088777758
aF8.1419760492022863
aF6.0417539509496905
aF4.5636647364175076
aF5.5472635777693426
aF4.9670659054875017
aF5.8275709441176105
aF6.0428391866267575
aF4.5906902645990044
aF4.7140778836410719
aF7.6882215015708084
aF7.1458253533718477
aF4.1274652265376659
aF4.0046153355134635
aF5.8990737848683636
aF5.7020673195588216
aF4.2345044981589268
aF5.7117425435861264
aF4.2381263968504967
aF6.2351364824855864
aF10.826513364880057
aF4.0234066372055111
aF5.5355096068534664
aF4.2555555106285254
aF4.9917547071525092
aF4.4917713129111387
aF4.0595836633359141
aF6.5339512221814005
aF14.60768771489127
aF5.6288468321113747
aF5.5290842059074112
aF4.9876907755076161
aF5.5095364194464427
aF5.591461276614055
aF11.454992186372571
aa(lp55
F4.2255584787277485
aF5.7650857465280936
aF5.0191529436648921
aF10.943902638182349
aF5.5442078520919509
aF7.5637506554543563
aF5.0238612756847658
aF5.1846785639113548
aF4.9670659054875017
aF10.443247315598427
aF4.6901616009633926
aF4.8902588439765964
aF4.6117472070852576
aF4.0918990207686754
aF4.674154175165512
aF10.598651615655022
aF7.6809766853098509
aF5.1846785639113548
aF5.8024193708248504
aF7.3690058762427917
aF4.7226048437066623
aF4.6252356961299483
aF5.9519240114492362
aF4.8423686498321672
aF6.2418693214711922
aF5.0180174169897072
aF6.7198247683365651
aF4.4364630221787422
aF8.1419760492022863
aF4.2316156584248663
aF8.8785455727321327
aF5.0100207031349058
aF4.4672908557260627
aF18.902685796367223
aF6.3461191532808243
aF4.8693834253730444
aa(lp56
F9.0005512725657226
aF4.0533668378225229
aF5.8033051668693787
aF4.6105039322866617
aF11.170497536296217
aF8.5211413897479176
aF5.2015404720880856
aF4.5580513805062779
aF4.8010443627316164
aF4.0290214907400923
aF4.2647346209240879
aF6.1625380615695136
aF6.8385848088541792
aF4.569669990052688
aF5.5539865218886177
aF6.1459997952545891
aF4.0539052296913809
aF6.3815883874050314
aF4.8424536295132867
aF7.4881404667874847
aF5.2843073586822982
aF5.5221030088518503
aF9.7422805207555871
aF4.9333734542739762
aF41.340805320230288
aF5.1937223347951971
aa(lp57
F4.6728338831225997
aF5.6141736209051967
aF4.243754250551369
aF8.1419760492022863
aF6.1962156974291958
aF4.0533668378225229
aF6.7572455238608882
aF4.0934357324977668
aF4.1803419488999722
aF4.5473204518917782
aF4.9363834061851293
aF5.8352000711084457
aF4.6757811634731468
aF6.4305264021292885
aF4.869139798009158
aF4.2603033184489902
aF8.138939124040931
aF5.0746997729119414
aF9.4937181855681096
aF5.2916719079972552
aF10.826513364880057
aF4.8508415443663466
aF4.3729027844779438
aF4.4813698047928199
aF6.7936198564447778
aF9.8320029558455957
aF6.3815883874050314
aF4.9333734542739762
aa(lp58
F6.6366682668534054
aF11.367006177357666
aF4.5190534242900142
aF4.9670659054875017
aF5.4814303415978145
aF6.217877493713118
aF8.1238590283604832
aF4.6808132264434335
aF4.2957984453009299
aF4.9670659054875017
aF5.1145470820645684
aF5.1402533481756194
aF7.158446858598225
aF4.3257403127043403
aF5.1404645199934649
aF4.6733261752693025
aF7.0351353186876509
aF4.4672908557260627
aF7.978592663425232
aF6.5578231104196689
aF5.2344059627864539
aF4.6386900476941832
aF5.4908151376047662
aF4.7103585172284603
aF4.9261947388833676
aF4.2327401551503812
aF6.2704666193247727
aF5.7751604284527929
aF7.6895627950423844
aF4.7501562589058324
aa(lp59
F5.3403325946385394
aF6.8550478562117476
aF5.2372623711408508
aF5.8635925889926384
aF7.045195743859594
aF4.2393554204680726
aF5.0216956147423844
aF4.9793640674080422
aF4.4361999975226354
aF10.51262119928883
aF4.4672908557260627
aF4.9292150240519561
aa(lp60
F4.0592761414669809
aF6.4234110718327031
aF15.421760400879185
aF5.7625661367150514
aF4.5906902645990044
aF9.5083185499444909
aF15.976738350810194
aF5.7703547774439841
aF14.60768771489127
aF7.95760450164547
aF4.893113076454064
aF4.3321550218773126
aF4.2691997737052105
aF5.668202563907812
aF7.8867039864015638
aF5.1226399032077712
aF5.5202432882593158
aF4.0442213852319284
aF5.9211710943648512
aa(lp61
F4.2293083461756709
aF5.3318269136779293
aF5.5984812874071963
aF5.8702494645531829
aF5.880018869449664
aF7.4597585126311685
aF7.1722820092083452
aF4.3700763441949846
aF6.2005929737214558
aF4.9032406882921862
aF5.0205753863625517
aF12.710708710711842
aF7.7004060280626163
aF4.8285144149689856
aF7.3479187080501944
aF5.1145470820645684
aF4.4376551181709516
aF4.0796360631779436
aF8.3193601501814527
aF10.05922301570385
aF4.1096618324744369
aF6.99734251227747
aF7.6882215015708084
aF6.8550478562117476
aF6.0418179796884672
aF5.793680525543337
aF5.2442867796863624
aF7.9832535617843661
aF5.8727637255208549
aF4.2381263968504967
aF4.8002367825814254
aF5.142013064301068
aF4.3937756365200613
aF5.4449068671690242
aF6.6664628629557185
aF4.358180945690961
aF5.5588386014240712
aF4.1888488382724773
aF4.9666443306639962
aF9.7002632751249394
aF4.480622711840776
aF4.3491488122292168
aF4.0290214907400923
aF4.1442406836525576
aF10.248862474177997
aF6.5210415270759938
aF6.481665744355265
aF6.5728894594827905
aF4.4572939304333801
aF6.112183109621995
aF10.155776877114235
aF5.6288468321113747
aF9.8320029558455957
aF7.1832741874199328
aF4.1487641835429656
aF4.919948431901993
aF5.5095364194464427
aF12.809018232742247
aF5.6355878207168359
aF7.3565147809824154
aa(lp62
F4.179704456411244
aF4.9670659054875017
aF5.4312361106998734
aF8.8083069480916976
aF5.4921557089004978
aF4.4647582781097697
aF7.3631973964960338
aF13.950997409205172
aa(lp63
F10.013803862961922
aF8.5098209767504471
aF11.158720138626469
aF6.1170319545597529
aF6.4061268617259799
aF4.2923725697154929
aF9.7900865598167499
aF4.2799066295398944
aF5.3929865655317712
aF5.6372190420950652
aF4.179704456411244
aF4.647705913559264
aF4.5636647364175076
aF10.063545056255698
aF5.1145470820645684
aF4.0533668378225229
aF4.7168198017031742
aF5.9644927971953017
aF7.0072518248075184
aF4.6116858952631503
aF7.4857869920402749
aF4.8640430118150277
aF6.2801217770125106
aF4.8010443627316164
aF5.1436681070657535
aF4.1433835951050106
aF6.6154415169622638
aF5.7723950192039979
aF4.2327401551503812
aF4.2381263968504967
aF4.2058709227302415
aF7.158446858598225
aF6.9972765945287847
aF5.373631041423323
aF4.54374631513571
aF4.9516120092965252
aF4.7771199921393972
aF5.2948861636596973
aF4.1841488813051626
aF5.4884989307252567
aF8.0699335652761022
aF10.51262119928883
aF6.6596167969667022
aF5.6288468321113747
aF4.7309626763610169
aF4.2676936679524715
aF5.1503429802705227
aF7.1951582502767337
aF4.1832579279957542
aa(lp64
F11.170497536296217
aF12.772421403158084
aF4.2108103645221604
aF8.6042093611610397
aF4.2675248545354592
aF6.0428391866267575
aF11.447878325706697
aF7.6882215015708084
aF9.7910066336785277
aF12.990830558036379
aF4.862198412256916
aF4.0660945621758628
aF7.0351353186876509
aF7.0149063809896433
aF4.480622711840776
aF4.0290214907400923
aF4.5174928248239468
aF4.3713174940355657
aF5.4921557089004978
aF4.6720233153863049
aF4.1987683925001242
aF5.6288468321113747
aF4.1832579279957542
aa(lp65
F5.0214532850556921
aF5.8635925889926384
aF6.4222998349872142
aF6.6900834887463638
aF4.5174928248239468
aF4.8002367825814254
aF5.142013064301068
aF6.8856764249525213
aF10.388156831405439
aF4.8508415443663466
aF4.4364630221787422
aF4.3530691338672147
aF12.572947078645427
aF4.1702040385173689
aF4.9793640674080422
aF5.5588386014240712
aa(lp66
F11.864704460447911
aF4.3660384234276179
aF6.112183109621995
aF4.7416185707226788
aF4.6184712428578507
aF5.4955715759477357
aF11.308474773479816
aF8.1166707829884785
aF4.5163082243934554
aF5.0543944444660696
aF5.0661868148846878
aF10.19084984254836
aF5.5202432882593158
aa(lp67
F6.3871384787533856
aF8.1095579565920701
aF4.3660384234276179
aF5.6582940511333248
aF4.2146707653778641
aF4.1455388957506756
aF4.8516812071643329
aF5.2105930083568524
aF4.8150733272896105
aF5.1586816653106382
aF9.7191135673837792
aF4.5580513805062779
aF5.8398599508287585
aF9.6887917663136136
aF4.6987035904632677
aF7.3156332958201702
aF4.9708456886725614
aF4.4314812527914142
aF5.8352000711084457
aF5.2372623711408508
aF5.7731935183117145
aF4.71120948061278
aF4.6987035904632677
aF5.5355096068534664
aF6.8092913126077832
aF8.5911199529194562
aF7.2247923162281182
aF7.5062986998440238
aF4.2058709227302415
aF4.9516120092965252
aF7.8133367230913677
aF11.477037586497289
aF7.5800189278020014
aF5.7581840294257995
aF4.0224965879624364
aF4.7309626763610169
aF7.3631973964960338
aF5.8822820954572563
aF17.216317712605303
aF4.6674699259619672
aF9.5249692892853801
aa(lp68
F4.4512074680704075
aF5.8712479208433876
aF4.8285144149689856
aF6.7572455238608882
aF13.94043706704273
aF4.0764018703298035
aF8.9704329621839722
aF7.978592663425232
aF5.4921557089004978
aF5.076336663458676
aF4.7016307058544839
aF5.0180174169897072
aF7.8249739099702538
aF4.7647129515135163
aF6.3207558686813119
aa(lp69
F5.7409065856995767
aF11.914373912517561
aF8.1095579565920701
aF9.7900865598167499
aF5.8890239725885607
aF4.1455388957506756
aF5.1887605880943752
aF5.4536435141651047
aF6.6352941469520346
aF4.5769403585353956
aF5.0992191831461469
aF4.5163082243934554
aF6.1806444901435498
aF4.3068123371774902
aF7.1394586475775554
aa(lp70
F5.5666213696224887
aF4.2799066295398944
aF4.179704456411244
aF5.8275709441176105
aF6.217877493713118
aF7.6302069137086885
aF6.7904439422638347
aF9.2961251906445739
aF12.020491566160674
aF9.5295325152617636
aF4.2381263968504967
aF8.2885137484827212
aF5.4449068671690242
aF4.3937756365200613
aF7.5002495251553682
aF4.4092926068698972
aF6.2181317528759692
aF6.7478531035449549
aF4.4225196045166442
aF4.1850444851872766
aF4.0442213852319284
aF5.158252697340032
aF6.085215181664168
aF4.413955276422314
aF4.1832579279957542
aa(lp71
F4.2098860779819205
aF6.1170319545597529
aF6.531645292299018
aF7.9441395201700544
aF4.3902186658232409
aF4.2675248545354592
aF5.7785067191477637
aF4.8640430118150277
aF5.4088055010514609
aF6.7343825220528757
aF4.6534076560826367
aF4.3844899833388737
aF4.3068123371774902
aF15.441280785351864
aa(lp72
F4.5765801906092065
aF4.4241495330584826
aF5.8798067991401979
aF4.6764248033498319
aF7.6882215015708084
aF7.5878852536747488
aF4.5366514232507313
aF4.1665146775119197
aF5.2502019448784019
aF4.3068123371774902
aF6.8856764249525213
aF5.9038335823616563
aF5.2948861636596973
aF5.4191204154045494
aF5.1133969274503528
aF5.146229628004761
aF4.2555555106285254
aF4.7016307058544839
aF6.0438629701021824
aa(lp73
F5.3869452100778261
aF6.2005929737214558
aF4.1455388957506756
aF10.543260377568274
aF8.5144807277481682
aF4.8120019616482921
aF4.0392148622511002
aF4.480622711840776
aF10.543260377568274
aa(lp74
F7.060800507539895
aF4.6105039322866617
aF7.4101458900050261
aF7.1679036798058178
aF4.8909500525507035
aa(lp75
F4.7855913942665325
aF4.4642081928918245
aF4.1381396903696128
aF8.6042093611610397
aF4.8010443627316164
aF4.8010443627316164
aF7.4800624857147255
aF7.5040705281249593
aF5.4449068671690242
aF7.3829239552541139
aF4.40316610620539
aF7.3631973964960338
aF4.4494862102520756
aF4.4672908557260627
aF4.2772456735117572
aa(lp76
F7.4502736323006076
aF5.1017849321838842
aF4.1096618324744369
aF6.8385848088541792
aF4.1455388957506756
aF4.3098607096232513
aF4.4571758446369572
aF5.5890296723400468
aF4.9516120092965252
aF4.3194654857445585
aF6.0418179796884672
aF5.5999197350134793
aF6.7804932357878371
aF4.0484993866493539
aF4.4037040561106835
aF6.3011138072917348
aF5.0216956147423844
aF7.6073833068611236
aF5.7991786902335534
aF4.5837236671818093
aF4.755574600324536
aF4.387131779243731
aF4.7010045093499002
aa(lp77
F4.2108103645221604
aF6.3915316590341149
aF9.8596796944299854
aF4.4241495330584826
aF4.5636647364175076
aF4.6764248033498319
aF6.2974696697723971
aF12.912682280890969
aF5.7731935183117145
aF4.5189594897695216
aF5.4449068671690242
aF21.726931808437726
aF4.0376215702417504
aF5.668202563907812
aF4.4037040561106835
aF5.6288468321113747
aF14.240211549085132
aF5.4740796677594119
aF10.868538549613959
aF4.883520165598668
aF5.0473650327084272
aa(lp78
F4.0592761414669809
aF5.0602106210048419
aF4.4512074680704075
aF7.5040705281249593
aF6.4191700462637868
aF4.346545015311662
aF8.9093097944192436
aF7.4619616664649016
aF5.2372623711408508
aF6.2126477171361358
aF5.1429934844369569
aF7.3921493793556863
aF7.7806008831708002
aF4.4339244800220818
aF5.8822820954572563
aF4.3555852556076786
aF4.2433470437552145
aF4.3469608041285852
aa(lp79
F4.2293083461756709
aF8.5098209767504471
aF4.4174394750595809
aF7.7087748258812354
aF6.2126477171361358
aF5.2372623711408508
aF4.3223504327541491
aF4.5806219330139193
aF5.142013064301068
aF6.112183109621995
aF8.0699335652761022
aF12.572924511002697
aa(lp80
F4.5765801906092065
aF7.4492654860738554
aF8.5343969681064635
aF4.1682957261726941
aF4.8553287088103758
aF6.6900834887463638
aF6.6154415169622638
aF4.8693834253730444
aF4.9666443306639962
aF6.0928830216898859
aF4.3555852556076786
aa(lp81
F4.1682957261726941
aF4.4642081928918245
aF4.8010443627316164
aF8.6042093611610397
aF5.5442078520919509
aF6.8092913126077832
aF5.0410748899745244
aF6.8856764249525213
aF12.912682280890969
aF6.2974696697723971
aF6.1525678136049784
aF7.1679036798058178
aF8.0126211870077952
aF4.6074916893057178
aa(lp82
F4.5636647364175076
aF4.0653860956472698
aF4.3279142007754032
aF9.2961251906445739
aF4.0084803800634035
aF5.0113759807813096
aF5.2504557144324622
aF13.94043706704273
aF4.5409839483451151
aF4.5609216980929546
aF5.0992191831461469
aF5.1980745591359465
aF12.809018232742247
aF4.755574600324536
aF4.6265107703918886
aF5.5451396322506099
aa(lp83
F4.093447046506256
aF7.4502736323006076
aF4.0272421396273046
aF6.7478531035449549
aF5.5522588085353846
aa(lp84
F7.9441395201700544
aF4.1096618324744369
aF5.8352000711084457
aF13.465865568844237
aF11.435216704601515
aF4.7016307058544839
aF5.5391178769720852
aF4.755574600324536
aa(lp85
F4.1096618324744369
aF4.2441220280898335
aF4.2606570786307678
aF11.32098822402628
aa(lp86
F4.0592761414669809
aF4.1228604716895205
aF4.1856348652230366
aF4.4571758446369572
aF5.5666213696224887
aF4.9708456886725614
aF6.2564435531877507
aF4.2747452195884819
aF4.2747452195884819
aF6.793069788720679
aF5.3716738728421092
aF5.5290842059074112
aa(lp87
F4.1228604716895205
aF8.9592340504551942
aF4.1096618324744369
aF12.020491566160674
aF4.1419214958899317
aF7.4648846386037278
aF5.8798067991401979
aF5.8543952844681542
aF6.2564435531877507
aF4.1156358179377861
aF5.3040420698645221
aF4.3068123371774902
aF5.1903679295633367
aF5.5202432882593158
aF4.1832579279957542
aa(lp88
F4.0653860956472698
aF5.6805089079233433
aF4.6987035904632677
aF4.3924522183158281
aF5.4449068671690242
aF4.6957057086468268
aF4.5409839483451151
aF4.5671427777894209
aF4.5609216980929546
aF4.1180493947809111
aF4.4647582781097697
aF5.8425439372146784
aF6.3060614038518565
aa(lp89
F5.5885231833368465
aF4.95238022176882
aF4.1381396903696128
aF14.70539422101993
aF6.112183109621995
aF5.9985052650809791
aF7.2303468463461726
aF4.5189594897695216
aF4.5609216980929546
aF5.8425439372146784
aF5.591461276614055
aF4.3469608041285852
aa(lp90
F5.5442078520919509
aF6.2181317528759692
aF6.7478531035449549
aF5.2916719079972552
aF4.5609216980929546
aa(lp91
F11.923322730642823
aF5.1586816653106382
aF4.0628624281788959
aa(lp92
F6.7584898167953256
aF4.8553287088103758
aF4.5174928248239468
aF8.5022201428910265
aF4.1955200429722623
aF9.7460765052169478
aF5.5522588085353846
aF5.2493331029073005
aF4.9002442847964289
aa(lp93
F6.7129122147241844
aF4.0783819997503485
aF5.0312782250978501
aF4.8010443627316164
aF5.0113759807813096
aF5.4449068671690242
aF4.0392148622511002
aF4.5609216980929546
aF10.543260377568274
aF5.1903679295633367
aF4.2204712567037799
aF4.1150742566426288
aa(lp94
F12.020491566160674
aF4.3084213081064604
aF4.716297829346221
aF5.8543952844681542
aF5.0056366325458157
aF4.5769403585353956
aF4.3951419319261902
aF4.1419214958899317
aF4.3223504327541491
aF7.4648846386037278
aF4.5174928248239468
aF4.2606570786307678
aF5.2493331029073005
aF4.7982390956113576
aF4.5609216980929546
aF4.1665146775119197
aF4.5609216980929546
aF4.1697909880342792
aa(lp95
F5.1404645199934649
aF4.4037040561106835
aF6.3172268571723329
aF5.5890296723400468
aF6.9115891459313588
aF4.6281074082770743
aF4.2606570786307678
aa(lp96
F4.3052222759080365
aF6.0839672991331923
aF11.435216704601515
aa(lp97
F4.0533668378225229
aF5.2836267870332563
aF4.5941768206421187
aF7.0522622928217302
aF4.5609216980929546
aF4.40316610620539
aa(lp98
F6.5997213955984293
aF4.71120948061278
aF5.3959879270929818
aF5.3110503163739473
aF8.1419760492022863
aF4.5609216980929546
aF4.8641530378464104
aa(lp99
F5.1017849321838842
aF7.4619616664649016
aF9.847073095851556
aF4.71120948061278
aF5.5290842059074112
aF4.1665146775119197
aa(lp100
F4.3251992536600739
aF6.6154415169622638
aa(lp101
F5.2076298267097769
aF4.2303250033881739
aF4.5609216980929546
aF5.5522588085353846
aa(lp102
F4.7057067851547174
aF4.6362600465073598
aF4.3084213081064604
aF4.5322998983128926
aF7.3690058762427917
aF4.4798594851110636
aF6.7478531035449549
aF4.5609216980929546
aa(lp103
F8.1419760492022863
aa(lp104
F8.4306868569198201
aF7.4502736323006076
aF5.626521749321185
aF6.6558716123000572
aF4.2303250033881739
aF6.0130429549530504
aF5.3110503163739473
aF4.1665146775119197
aF5.5522588085353846
aF10.868538549613959
aF4.1697909880342792
aa(lp105
F13.616554068604714
aF4.3223504327541491
aa(lp106
F4.1856348652230366
aF6.6154415169622638
aF4.200590223652128
aF4.2606570786307678
aF4.3469608041285852
aa(lp107
F4.263099242925648
aF8.2787788611068081
aF4.2747452195884819
aF5.5134563768171176
aa(lp108
F6.6636406859158797
aF6.4061268617259799
aa(lp109
F4.1096618324744369
aF4.3273505211175376
aF7.8316598879982564
aF4.0539052296913809
aF4.4037040561106835
aF5.9299482520933111
aF5.8759388931763112
aF4.1665146775119197
aF4.1697909880342792
aa(lp110
F4.1381396903696128
aF4.4361802645784394
aF6.3970659121788316
aF4.1428246694153472
aF4.1468034879802929
aa(lp111
F4.0710851638964414
aa(lp112
F7.0893207244224499
aa(lp113
F4.5609216980929546
aa(lp114
F4.5941768206421187
aF7.0522622928217302
aF7.130774439627217
aF5.8106109909608676
aa(lp115
F4.2284891895923131
aa(lp116
F7.5980914658474745
aF4.480656747622433
aF4.263099242925648
aa(lp117
F7.4800624857147255
aF4.4512074680704075
aF4.1155870178826426
aF4.0539052296913809
aF4.248764172902046
aF4.716297829346221
aF7.8316598879982564
aF6.6738066584280347
aF4.263099242925648
aa(lp118
F5.5953380375621524
aF4.1832579279957542
aF5.284242211098217
aa(lp119
F6.6738066584280347
aF5.2705123667051943
aa(lp120
F6.3370685036506416
aF4.263099242925648
aF5.5522588085353846
aa(lp121
F5.8106109909608676
aF4.263099242925648
aa(lp122
F5.6310987956383656
aa(lp123
F4.4229210444563343
aF7.0989374453314724
aa(lp124
F6.3970659121788316
aF5.7389712726902182
aa(lp125
F5.247809234997419
aa(lp126
F4.6673035761401565
aF4.024863190138376
aF4.1638723092484042
aa(lp127
F4.1381396903696128
aF4.7236850387100162
aa(lp128
F4.4216761488213958
aa(lp129
F4.263099242925648
aF4.6104150404870907
aF4.8909500525507035
aF5.0922093819062013
aa(lp130
F6.4676657086046418
aF4.6104150404870907
aF4.3337952689030317
aa(lp131
F6.4821671498581672
aF6.112183109621995
aF4.0586254807850821
aF4.2192817852390476
aa(lp132
a(lp133
F7.3690058762427917
aF5.9299482520933111
aF4.4411808896785487
aa(lp134
F4.4512074680704075
aF4.0323096215268315
aF4.0586254807850821
aF4.1638723092484042
aa(lp135
F4.6673035761401565
aF5.6172213494961127
aa(lp136
a(lp137
a(lp138
F5.3110503163739473
aa(lp139
F6.4676657086046418
aa(lp140
a(lp141
a(lp142
F6.2642444293622646
aa(lp143
a(lp144
F4.1814328020330294
aa(lp145
a(lp146
a(lp147
a(lp148
F7.7281055828773333
aa(lp149
F7.0893207244224499
aF4.1638723092484042
aa(lp150
a(lp151
a(lp152
F6.4676657086046418
aa(lp153
a(lp154
a(lp155
a(lp156
a(lp157
F4.4512074680704075
aF4.6823928480378925
aa(lp158
F4.4512074680704075
aa(lp159
a(lp160
a(lp161
a(lp162
a(lp163
a(lp164
a(lp165
a(lp166
a(lp167
a(lp168
a(lp169
a(lp170
a(lp171
a(lp172
a(lp173
a(lp174
a(lp175
a(lp176
a(lp177
a(lp178
a(lp179
a(lp180
a(lp181
a(lp182
a(lp183
a(lp184
a(lp185
a(lp186
a(lp187
atbg1
(g2
(I0
tS'b'
tRp188
(I1
(I179
tg5
I00
S'\x00\x00\x00\x00\x00\xc0\x87@\x00\x00\x00\x00\x00\x90\x86@\x00\x00\x00\x00\x00\x80\x86@\x00\x00\x00\x00\x00`\x95@\x00\x00\x00\x00\x00@\x84@\x00\x00\x00\x00\x00@\x85@\x00\x00\x00\x00\x000\x94@\x00\x00\x00\x00\x00 \x93@\x00\x00\x00\x00\x00\x00\x84@\x00\x00\x00\x00\x00\x00\x93@\x00\x00\x00\x00\x00\x10\x82@\x00\x00\x00\x00\x00\x00\x92@\x00\x00\x00\x00\x00`\x9a@\x00\x00\x00\x00\x00\xd0\x91@\x00\x00\x00\x00\x00\xe0\x90@\x00\x00\x00\x00\x00\x00\x80@\x00\x00\x00\x00\x00\xe0\x8f@\x00\x00\x00\x00\x00\x80\x81@\x00\x00\x00\x00\x00\xa0\x90@\x00\x00\x00\x00\x00\x80\x8f@\x00\x00\x00\x00\x00\x00\x8e@\x00\x00\x00\x00\x00\xc0\x8d@\x00\x00\x00\x00\x00@\x80@\x00\x00\x00\x00\x00x\x96@\x00\x00\x00\x00\x00\x00\x8c@\x00\x00\x00\x00\x00@\x8d@\x00\x00\x00\x00\x00\xa0\x8b@\x00\x00\x00\x00\x00@\x8a@\x00\x00\x00\x00\x00\x00~@\x00\x00\x00\x00\x00@\x9b@\x00\x00\x00\x00\x00\x00\x8b@\x00\x00\x00\x00\x00\x80x@\x00\x00\x00\x00\x00\x80\x89@\x00\x00\x00\x00\x00`\x88@\x00\x00\x00\x00\x00\x00\x88@\x00\x00\x00\x00\x00\x80{@\x00\x00\x00\x00\x00 \x8a@\x00\x00\x00\x00\x00\xc0\x97@\x00\x00\x00\x00\x00\x80\x86@\x00\x00\x00\x00\x00`\x87@\x00\x00\x00\x00\x00\x00\x86@\x00\x00\x00\x00\x00 u@\x00\x00\x00\x00\x00\xc0\x90@\x00\x00\x00\x00\x00\xc0\x87@\x00\x00\x00\x00\x00\x80\x86@\x00\x00\x00\x00\x00\xa0\x84@\x00\x00\x00\x00\x00@\x85@\x00\x00\x00\x00\x00\x80\x83@\x00\x00\x00\x00\x00\x00\x84@\x00\x00\x00\x00\x00@\x83@\x00\x00\x00\x00\x00\x80v@\x00\x00\x00\x00\x00`\x85@\x00\x00\x00\x00\x00\x80\x93@\x00\x00\x00\x00\x00\x00r@\x00\x00\x00\x00\x00\x80\x92@\x00\x00\x00\x00\x00\x80\x81@\x00\x00\x00\x00\x00\x00\x82@\x00\x00\x00\x00\x00\x00t@\x00\x00\x00\x00\x00\xc0\x91@\x00\x00\x00\x00\x00\xe0\x80@\x00\x00\x00\x00\x00\x00\x82@\x00\x00\x00\x00\x00@\x80@\x00\x00\x00\x00\x00\x00\x81@\x00\x00\x00\x00\x00\x80\x7f@\x00\x00\x00\x00\x00\x00\x80@\x00\x00\x00\x00\x00@n@\x00\x00\x00\x00\x00\x00~@\x00\x00\x00\x00\x00\xc0\x87@\x00\x00\x00\x00\x00@\x8f@\x00\x00\x00\x00\x00\x80\x7f@\x00\x00\x00\x00\x00\xc0}@\x00\x00\x00\x00\x00\x00|@\x00\x00\x00\x00\x00\x80{@\x00\x00\x00\x00\x00\x80\x8b@\x00\x00\x00\x00\x00\x00z@\x00\x00\x00\x00\x00@z@\x00\x00\x00\x00\x00\x00n@\x00\x00\x00\x00\x00\x80|@\x00\x00\x00\x00\x00\xc0\x83@\x00\x00\x00\x00\x00\xc0x@\x00\x00\x00\x00\x00\x00\x89@\x00\x00\x00\x00\x00\x00x@\x00\x00\x00\x00\x00\x00x@\x00\x00\x00\x00\x00\xc0v@\x00\x00\x00\x00\x00\x80\x86@\x00\x00\x00\x00\x00@\x81@\x00\x00\x00\x00\x00\xc0w@\x00\x00\x00\x00\x00\x80v@\x00\x00\x00\x00\x00\x00u@\x00\x00\x00\x00\x00\x00u@\x00\x00\x00\x00\x00@u@\x00\x00\x00\x00\x00\x00t@\x00\x00\x00\x00\x00@d@\x00\x00\x00\x00\x00\x00t@\x00\x00\x00\x00\x00\x80s@\x00\x00\x00\x00\x00\x00\x83@\x00\x00\x00\x00\x00\x00d@\x00\x00\x00\x00\x00\x00s@\x00\x00\x00\x00\x00\x00\x82@\x00\x00\x00\x00\x00\x80q@\x00\x00\x00\x00\x00\x80\x81@\x00\x00\x00\x00\x00\x80q@\x00\x00\x00\x00\x00\x00p@\x00\x00\x00\x00\x00@p@\x00\x00\x00\x00\x00\x80p@\x00\x00\x00\x00\x00\x00n@\x00\x00\x00\x00\x00\x00`@\x00\x00\x00\x00\x00\x80v@\x00\x00\x00\x00\x00\x00~@\x00\x00\x00\x00\x00\x00l@\x00\x00\x00\x00\x00\x00k@\x00\x00\x00\x00\x00\x00n@\x00\x00\x00\x00\x00\x80i@\x00\x00\x00\x00\x00\x00y@\x00\x00\x00\x00\x00\x80k@\x00\x00\x00\x00\x00\x00l@\x00\x00\x00\x00\x00\x80f@\x00\x00\x00\x00\x00\x00k@\x00\x00\x00\x00\x00\x00h@\x00\x00\x00\x00\x00\x00T@\x00\x00\x00\x00\x00@\x80@\x00\x00\x00\x00\x00\x00b@\x00\x00\x00\x00\x00\x00a@\x00\x00\x00\x00\x00\x00f@\x00\x00\x00\x00\x00\xc0o@\x00\x00\x00\x00\x00\x00t@\x00\x00\x00\x00\x00\x80f@\x00\x00\x00\x00\x00\x00^@\x00\x00\x00\x00\x00\x00b@\x00\x00\x00\x00\x00\x00d@\x00\x00\x00\x00\x00\x00\\@\x00\x00\x00\x00\x00\x00D@\x00\x00\x00\x00\x00\x00S@\x00\x00\x00\x00\x00\x00n@\x00\x00\x00\x00\x00\x00d@\x00\x00\x00\x00\x00\x00i@\x00\x00\x00\x00\x00\x00Z@\x00\x00\x00\x00\x00\x00j@\x00\x00\x00\x00\x00\x00N@\x00\x00\x00\x00\x00\x00X@\x00\x00\x00\x00\x00\x00^@\x00\x00\x00\x00\x00\x00R@\x00\x00\x00\x00\x00\x80a@\x00\x00\x00\x00\x00\x00L@\x00\x00\x00\x00\x00\x00`@\x00\x00\x00\x00\x00\x00V@\x00\x00\x00\x00\x00\x00d@\x00\x00\x00\x00\x00\x00^@\x00\x00\x00\x00\x00\x00T@\x00\x00\x00\x00\x00\x00d@\x00\x00\x00\x00\x00\x00X@\x00\x00\x00\x00\x00\x00F@\x00\x00\x00\x00\x00\x00R@\x00\x00\x00\x00\x00\x00I@\x00\x00\x00\x00\x00\x00X@\x00\x00\x00\x00\x00\x00U@\x00\x00\x00\x00\x00\x00D@\x00\x00\x00\x00\x00\x00P@\x00\x00\x00\x00\x00\x00T@\x00\x00\x00\x00\x00\x00B@\x00\x00\x00\x00\x00\x00R@\x00\x00\x00\x00\x00\x00L@\x00\x00\x00\x00\x00\x00@@\x00\x00\x00\x00\x00\x00@@\x00\x00\x00\x00\x00\x00N@\x00\x00\x00\x00\x00\x00H@\x00\x00\x00\x00\x00\x00<@\x00\x00\x00\x00\x00\x00H@\x00\x00\x00\x00\x00\x00D@\x00\x00\x00\x00\x00\x008@\x00\x00\x00\x00\x00\x002@\x00\x00\x00\x00\x00\x00@@\x00\x00\x00\x00\x00\x004@\x00\x00\x00\x00\x00\x008@\x00\x00\x00\x00\x00\x000@\x00\x00\x00\x00\x00\x00 @\x00\x00\x00\x00\x00\x00(@\x00\x00\x00\x00\x00\x00 @\x00\x00\x00\x00\x00\x00\x00@'
tbg1
(g2
(I0
tS'b'
tRp189
(I1
(I400
I3
tg4
(S'i8'
I0
I1
tRp190
(I3
S'<'
NNNI-1
I-1
I0
tbI00
S'\xcc\x01\x00\x00\x00\x00\x00\x00\xcc\x01\x00\x00\x00\x00\x00\x00\x00\x00\x00\x00\x00\x00\x00\x00\xcc\x01\x00\x00\x00\x00\x00\x00\xce\x01\x00\x00\x00\x00\x00\x00\x00\x00\x00\x00\x00\x00\x00\x00\xcc\x01\x00\x00\x00\x00\x00\x00\xd0\x01\x00\x00\x00\x00\x00\x00\x00\x00\x00\x00\x00\x00\x00\x00\xcc\x01\x00\x00\x00\x00\x00\x00\xd2\x01\x00\x00\x00\x00\x00\x00\x00\x00\x00\x00\x00\x00\x00\x00\xcc\x01\x00\x00\x00\x00\x00\x00\xd4\x01\x00\x00\x00\x00\x00\x00\x00\x00\x00\x00\x00\x00\x00\x00\xcc\x01\x00\x00\x00\x00\x00\x00\xd6\x01\x00\x00\x00\x00\x00\x00\x00\x00\x00\x00\x00\x00\x00\x00\xcc\x01\x00\x00\x00\x00\x00\x00\xd8\x01\x00\x00\x00\x00\x00\x00\x00\x00\x00\x00\x00\x00\x00\x00\xcc\x01\x00\x00\x00\x00\x00\x00\xda\x01\x00\x00\x00\x00\x00\x00\x00\x00\x00\x00\x00\x00\x00\x00\xcc\x01\x00\x00\x00\x00\x00\x00\xdc\x01\x00\x00\x00\x00\x00\x00\x00\x00\x00\x00\x00\x00\x00\x00\xcc\x01\x00\x00\x00\x00\x00\x00\xde\x01\x00\x00\x00\x00\x00\x00\x00\x00\x00\x00\x00\x00\x00\x00\xcc\x01\x00\x00\x00\x00\x00\x00\xe0\x01\x00\x00\x00\x00\x00\x00\x00\x00\x00\x00\x00\x00\x00\x00\xcc\x01\x00\x00\x00\x00\x00\x00\xe2\x01\x00\x00\x00\x00\x00\x00\x00\x00\x00\x00\x00\x00\x00\x00\xcc\x01\x00\x00\x00\x00\x00\x00\xe4\x01\x00\x00\x00\x00\x00\x00\x00\x00\x00\x00\x00\x00\x00\x00\xcc\x01\x00\x00\x00\x00\x00\x00\xe6\x01\x00\x00\x00\x00\x00\x00\x00\x00\x00\x00\x00\x00\x00\x00\xcc\x01\x00\x00\x00\x00\x00\x00\xe8\x01\x00\x00\x00\x00\x00\x00\x00\x00\x00\x00\x00\x00\x00\x00\xcc\x01\x00\x00\x00\x00\x00\x00\xea\x01\x00\x00\x00\x00\x00\x00\x00\x00\x00\x00\x00\x00\x00\x00\xcc\x01\x00\x00\x00\x00\x00\x00\xec\x01\x00\x00\x00\x00\x00\x00\x00\x00\x00\x00\x00\x00\x00\x00\xcc\x01\x00\x00\x00\x00\x00\x00\xee\x01\x00\x00\x00\x00\x00\x00\x00\x00\x00\x00\x00\x00\x00\x00\xcc\x01\x00\x00\x00\x00\x00\x00\xf0\x01\x00\x00\x00\x00\x00\x00\x00\x00\x00\x00\x00\x00\x00\x00\xcc\x01\x00\x00\x00\x00\x00\x00\xf2\x01\x00\x00\x00\x00\x00\x00\x00\x00\x00\x00\x00\x00\x00\x00\xce\x01\x00\x00\x00\x00\x00\x00\xcc\x01\x00\x00\x00\x00\x00\x00\x00\x00\x00\x00\x00\x00\x00\x00\xce\x01\x00\x00\x00\x00\x00\x00\xce\x01\x00\x00\x00\x00\x00\x00\x00\x00\x00\x00\x00\x00\x00\x00\xce\x01\x00\x00\x00\x00\x00\x00\xd0\x01\x00\x00\x00\x00\x00\x00\x00\x00\x00\x00\x00\x00\x00\x00\xce\x01\x00\x00\x00\x00\x00\x00\xd2\x01\x00\x00\x00\x00\x00\x00\x00\x00\x00\x00\x00\x00\x00\x00\xce\x01\x00\x00\x00\x00\x00\x00\xd4\x01\x00\x00\x00\x00\x00\x00\x00\x00\x00\x00\x00\x00\x00\x00\xce\x01\x00\x00\x00\x00\x00\x00\xd6\x01\x00\x00\x00\x00\x00\x00\x00\x00\x00\x00\x00\x00\x00\x00\xce\x01\x00\x00\x00\x00\x00\x00\xd8\x01\x00\x00\x00\x00\x00\x00\x00\x00\x00\x00\x00\x00\x00\x00\xce\x01\x00\x00\x00\x00\x00\x00\xda\x01\x00\x00\x00\x00\x00\x00\x00\x00\x00\x00\x00\x00\x00\x00\xce\x01\x00\x00\x00\x00\x00\x00\xdc\x01\x00\x00\x00\x00\x00\x00\x00\x00\x00\x00\x00\x00\x00\x00\xce\x01\x00\x00\x00\x00\x00\x00\xde\x01\x00\x00\x00\x00\x00\x00\x00\x00\x00\x00\x00\x00\x00\x00\xce\x01\x00\x00\x00\x00\x00\x00\xe0\x01\x00\x00\x00\x00\x00\x00\x00\x00\x00\x00\x00\x00\x00\x00\xce\x01\x00\x00\x00\x00\x00\x00\xe2\x01\x00\x00\x00\x00\x00\x00\x00\x00\x00\x00\x00\x00\x00\x00\xce\x01\x00\x00\x00\x00\x00\x00\xe4\x01\x00\x00\x00\x00\x00\x00\x00\x00\x00\x00\x00\x00\x00\x00\xce\x01\x00\x00\x00\x00\x00\x00\xe6\x01\x00\x00\x00\x00\x00\x00\x00\x00\x00\x00\x00\x00\x00\x00\xce\x01\x00\x00\x00\x00\x00\x00\xe8\x01\x00\x00\x00\x00\x00\x00\x00\x00\x00\x00\x00\x00\x00\x00\xce\x01\x00\x00\x00\x00\x00\x00\xea\x01\x00\x00\x00\x00\x00\x00\x00\x00\x00\x00\x00\x00\x00\x00\xce\x01\x00\x00\x00\x00\x00\x00\xec\x01\x00\x00\x00\x00\x00\x00\x00\x00\x00\x00\x00\x00\x00\x00\xce\x01\x00\x00\x00\x00\x00\x00\xee\x01\x00\x00\x00\x00\x00\x00\x00\x00\x00\x00\x00\x00\x00\x00\xce\x01\x00\x00\x00\x00\x00\x00\xf0\x01\x00\x00\x00\x00\x00\x00\x00\x00\x00\x00\x00\x00\x00\x00\xce\x01\x00\x00\x00\x00\x00\x00\xf2\x01\x00\x00\x00\x00\x00\x00\x00\x00\x00\x00\x00\x00\x00\x00\xd0\x01\x00\x00\x00\x00\x00\x00\xcc\x01\x00\x00\x00\x00\x00\x00\x00\x00\x00\x00\x00\x00\x00\x00\xd0\x01\x00\x00\x00\x00\x00\x00\xce\x01\x00\x00\x00\x00\x00\x00\x00\x00\x00\x00\x00\x00\x00\x00\xd0\x01\x00\x00\x00\x00\x00\x00\xd0\x01\x00\x00\x00\x00\x00\x00\x00\x00\x00\x00\x00\x00\x00\x00\xd0\x01\x00\x00\x00\x00\x00\x00\xd2\x01\x00\x00\x00\x00\x00\x00\x00\x00\x00\x00\x00\x00\x00\x00\xd0\x01\x00\x00\x00\x00\x00\x00\xd4\x01\x00\x00\x00\x00\x00\x00\x00\x00\x00\x00\x00\x00\x00\x00\xd0\x01\x00\x00\x00\x00\x00\x00\xd6\x01\x00\x00\x00\x00\x00\x00\x00\x00\x00\x00\x00\x00\x00\x00\xd0\x01\x00\x00\x00\x00\x00\x00\xd8\x01\x00\x00\x00\x00\x00\x00\x00\x00\x00\x00\x00\x00\x00\x00\xd0\x01\x00\x00\x00\x00\x00\x00\xda\x01\x00\x00\x00\x00\x00\x00\x00\x00\x00\x00\x00\x00\x00\x00\xd0\x01\x00\x00\x00\x00\x00\x00\xdc\x01\x00\x00\x00\x00\x00\x00\x00\x00\x00\x00\x00\x00\x00\x00\xd0\x01\x00\x00\x00\x00\x00\x00\xde\x01\x00\x00\x00\x00\x00\x00\x00\x00\x00\x00\x00\x00\x00\x00\xd0\x01\x00\x00\x00\x00\x00\x00\xe0\x01\x00\x00\x00\x00\x00\x00\x00\x00\x00\x00\x00\x00\x00\x00\xd0\x01\x00\x00\x00\x00\x00\x00\xe2\x01\x00\x00\x00\x00\x00\x00\x00\x00\x00\x00\x00\x00\x00\x00\xd0\x01\x00\x00\x00\x00\x00\x00\xe4\x01\x00\x00\x00\x00\x00\x00\x00\x00\x00\x00\x00\x00\x00\x00\xd0\x01\x00\x00\x00\x00\x00\x00\xe6\x01\x00\x00\x00\x00\x00\x00\x00\x00\x00\x00\x00\x00\x00\x00\xd0\x01\x00\x00\x00\x00\x00\x00\xe8\x01\x00\x00\x00\x00\x00\x00\x00\x00\x00\x00\x00\x00\x00\x00\xd0\x01\x00\x00\x00\x00\x00\x00\xea\x01\x00\x00\x00\x00\x00\x00\x00\x00\x00\x00\x00\x00\x00\x00\xd0\x01\x00\x00\x00\x00\x00\x00\xec\x01\x00\x00\x00\x00\x00\x00\x00\x00\x00\x00\x00\x00\x00\x00\xd0\x01\x00\x00\x00\x00\x00\x00\xee\x01\x00\x00\x00\x00\x00\x00\x00\x00\x00\x00\x00\x00\x00\x00\xd0\x01\x00\x00\x00\x00\x00\x00\xf0\x01\x00\x00\x00\x00\x00\x00\x00\x00\x00\x00\x00\x00\x00\x00\xd0\x01\x00\x00\x00\x00\x00\x00\xf2\x01\x00\x00\x00\x00\x00\x00\x00\x00\x00\x00\x00\x00\x00\x00\xd2\x01\x00\x00\x00\x00\x00\x00\xcc\x01\x00\x00\x00\x00\x00\x00\x00\x00\x00\x00\x00\x00\x00\x00\xd2\x01\x00\x00\x00\x00\x00\x00\xce\x01\x00\x00\x00\x00\x00\x00\x00\x00\x00\x00\x00\x00\x00\x00\xd2\x01\x00\x00\x00\x00\x00\x00\xd0\x01\x00\x00\x00\x00\x00\x00\x00\x00\x00\x00\x00\x00\x00\x00\xd2\x01\x00\x00\x00\x00\x00\x00\xd2\x01\x00\x00\x00\x00\x00\x00\x00\x00\x00\x00\x00\x00\x00\x00\xd2\x01\x00\x00\x00\x00\x00\x00\xd4\x01\x00\x00\x00\x00\x00\x00\x00\x00\x00\x00\x00\x00\x00\x00\xd2\x01\x00\x00\x00\x00\x00\x00\xd6\x01\x00\x00\x00\x00\x00\x00\x00\x00\x00\x00\x00\x00\x00\x00\xd2\x01\x00\x00\x00\x00\x00\x00\xd8\x01\x00\x00\x00\x00\x00\x00\x00\x00\x00\x00\x00\x00\x00\x00\xd2\x01\x00\x00\x00\x00\x00\x00\xda\x01\x00\x00\x00\x00\x00\x00\x00\x00\x00\x00\x00\x00\x00\x00\xd2\x01\x00\x00\x00\x00\x00\x00\xdc\x01\x00\x00\x00\x00\x00\x00\x00\x00\x00\x00\x00\x00\x00\x00\xd2\x01\x00\x00\x00\x00\x00\x00\xde\x01\x00\x00\x00\x00\x00\x00\x00\x00\x00\x00\x00\x00\x00\x00\xd2\x01\x00\x00\x00\x00\x00\x00\xe0\x01\x00\x00\x00\x00\x00\x00\x00\x00\x00\x00\x00\x00\x00\x00\xd2\x01\x00\x00\x00\x00\x00\x00\xe2\x01\x00\x00\x00\x00\x00\x00\x00\x00\x00\x00\x00\x00\x00\x00\xd2\x01\x00\x00\x00\x00\x00\x00\xe4\x01\x00\x00\x00\x00\x00\x00\x00\x00\x00\x00\x00\x00\x00\x00\xd2\x01\x00\x00\x00\x00\x00\x00\xe6\x01\x00\x00\x00\x00\x00\x00\x00\x00\x00\x00\x00\x00\x00\x00\xd2\x01\x00\x00\x00\x00\x00\x00\xe8\x01\x00\x00\x00\x00\x00\x00\x00\x00\x00\x00\x00\x00\x00\x00\xd2\x01\x00\x00\x00\x00\x00\x00\xea\x01\x00\x00\x00\x00\x00\x00\x00\x00\x00\x00\x00\x00\x00\x00\xd2\x01\x00\x00\x00\x00\x00\x00\xec\x01\x00\x00\x00\x00\x00\x00\x00\x00\x00\x00\x00\x00\x00\x00\xd2\x01\x00\x00\x00\x00\x00\x00\xee\x01\x00\x00\x00\x00\x00\x00\x00\x00\x00\x00\x00\x00\x00\x00\xd2\x01\x00\x00\x00\x00\x00\x00\xf0\x01\x00\x00\x00\x00\x00\x00\x00\x00\x00\x00\x00\x00\x00\x00\xd2\x01\x00\x00\x00\x00\x00\x00\xf2\x01\x00\x00\x00\x00\x00\x00\x00\x00\x00\x00\x00\x00\x00\x00\xd4\x01\x00\x00\x00\x00\x00\x00\xcc\x01\x00\x00\x00\x00\x00\x00\x00\x00\x00\x00\x00\x00\x00\x00\xd4\x01\x00\x00\x00\x00\x00\x00\xce\x01\x00\x00\x00\x00\x00\x00\x00\x00\x00\x00\x00\x00\x00\x00\xd4\x01\x00\x00\x00\x00\x00\x00\xd0\x01\x00\x00\x00\x00\x00\x00\x00\x00\x00\x00\x00\x00\x00\x00\xd4\x01\x00\x00\x00\x00\x00\x00\xd2\x01\x00\x00\x00\x00\x00\x00\x00\x00\x00\x00\x00\x00\x00\x00\xd4\x01\x00\x00\x00\x00\x00\x00\xd4\x01\x00\x00\x00\x00\x00\x00\x00\x00\x00\x00\x00\x00\x00\x00\xd4\x01\x00\x00\x00\x00\x00\x00\xd6\x01\x00\x00\x00\x00\x00\x00\x00\x00\x00\x00\x00\x00\x00\x00\xd4\x01\x00\x00\x00\x00\x00\x00\xd8\x01\x00\x00\x00\x00\x00\x00\x00\x00\x00\x00\x00\x00\x00\x00\xd4\x01\x00\x00\x00\x00\x00\x00\xda\x01\x00\x00\x00\x00\x00\x00\x00\x00\x00\x00\x00\x00\x00\x00\xd4\x01\x00\x00\x00\x00\x00\x00\xdc\x01\x00\x00\x00\x00\x00\x00\x00\x00\x00\x00\x00\x00\x00\x00\xd4\x01\x00\x00\x00\x00\x00\x00\xde\x01\x00\x00\x00\x00\x00\x00\x00\x00\x00\x00\x00\x00\x00\x00\xd4\x01\x00\x00\x00\x00\x00\x00\xe0\x01\x00\x00\x00\x00\x00\x00\x00\x00\x00\x00\x00\x00\x00\x00\xd4\x01\x00\x00\x00\x00\x00\x00\xe2\x01\x00\x00\x00\x00\x00\x00\x00\x00\x00\x00\x00\x00\x00\x00\xd4\x01\x00\x00\x00\x00\x00\x00\xe4\x01\x00\x00\x00\x00\x00\x00\x00\x00\x00\x00\x00\x00\x00\x00\xd4\x01\x00\x00\x00\x00\x00\x00\xe6\x01\x00\x00\x00\x00\x00\x00\x00\x00\x00\x00\x00\x00\x00\x00\xd4\x01\x00\x00\x00\x00\x00\x00\xe8\x01\x00\x00\x00\x00\x00\x00\x00\x00\x00\x00\x00\x00\x00\x00\xd4\x01\x00\x00\x00\x00\x00\x00\xea\x01\x00\x00\x00\x00\x00\x00\x00\x00\x00\x00\x00\x00\x00\x00\xd4\x01\x00\x00\x00\x00\x00\x00\xec\x01\x00\x00\x00\x00\x00\x00\x00\x00\x00\x00\x00\x00\x00\x00\xd4\x01\x00\x00\x00\x00\x00\x00\xee\x01\x00\x00\x00\x00\x00\x00\x00\x00\x00\x00\x00\x00\x00\x00\xd4\x01\x00\x00\x00\x00\x00\x00\xf0\x01\x00\x00\x00\x00\x00\x00\x00\x00\x00\x00\x00\x00\x00\x00\xd4\x01\x00\x00\x00\x00\x00\x00\xf2\x01\x00\x00\x00\x00\x00\x00\x00\x00\x00\x00\x00\x00\x00\x00\xd6\x01\x00\x00\x00\x00\x00\x00\xcc\x01\x00\x00\x00\x00\x00\x00\x00\x00\x00\x00\x00\x00\x00\x00\xd6\x01\x00\x00\x00\x00\x00\x00\xce\x01\x00\x00\x00\x00\x00\x00\x00\x00\x00\x00\x00\x00\x00\x00\xd6\x01\x00\x00\x00\x00\x00\x00\xd0\x01\x00\x00\x00\x00\x00\x00\x00\x00\x00\x00\x00\x00\x00\x00\xd6\x01\x00\x00\x00\x00\x00\x00\xd2\x01\x00\x00\x00\x00\x00\x00\x00\x00\x00\x00\x00\x00\x00\x00\xd6\x01\x00\x00\x00\x00\x00\x00\xd4\x01\x00\x00\x00\x00\x00\x00\x00\x00\x00\x00\x00\x00\x00\x00\xd6\x01\x00\x00\x00\x00\x00\x00\xd6\x01\x00\x00\x00\x00\x00\x00\x00\x00\x00\x00\x00\x00\x00\x00\xd6\x01\x00\x00\x00\x00\x00\x00\xd8\x01\x00\x00\x00\x00\x00\x00\x00\x00\x00\x00\x00\x00\x00\x00\xd6\x01\x00\x00\x00\x00\x00\x00\xda\x01\x00\x00\x00\x00\x00\x00\x00\x00\x00\x00\x00\x00\x00\x00\xd6\x01\x00\x00\x00\x00\x00\x00\xdc\x01\x00\x00\x00\x00\x00\x00\x00\x00\x00\x00\x00\x00\x00\x00\xd6\x01\x00\x00\x00\x00\x00\x00\xde\x01\x00\x00\x00\x00\x00\x00\x00\x00\x00\x00\x00\x00\x00\x00\xd6\x01\x00\x00\x00\x00\x00\x00\xe0\x01\x00\x00\x00\x00\x00\x00\x00\x00\x00\x00\x00\x00\x00\x00\xd6\x01\x00\x00\x00\x00\x00\x00\xe2\x01\x00\x00\x00\x00\x00\x00\x00\x00\x00\x00\x00\x00\x00\x00\xd6\x01\x00\x00\x00\x00\x00\x00\xe4\x01\x00\x00\x00\x00\x00\x00\x00\x00\x00\x00\x00\x00\x00\x00\xd6\x01\x00\x00\x00\x00\x00\x00\xe6\x01\x00\x00\x00\x00\x00\x00\x00\x00\x00\x00\x00\x00\x00\x00\xd6\x01\x00\x00\x00\x00\x00\x00\xe8\x01\x00\x00\x00\x00\x00\x00\x00\x00\x00\x00\x00\x00\x00\x00\xd6\x01\x00\x00\x00\x00\x00\x00\xea\x01\x00\x00\x00\x00\x00\x00\x00\x00\x00\x00\x00\x00\x00\x00\xd6\x01\x00\x00\x00\x00\x00\x00\xec\x01\x00\x00\x00\x00\x00\x00\x00\x00\x00\x00\x00\x00\x00\x00\xd6\x01\x00\x00\x00\x00\x00\x00\xee\x01\x00\x00\x00\x00\x00\x00\x00\x00\x00\x00\x00\x00\x00\x00\xd6\x01\x00\x00\x00\x00\x00\x00\xf0\x01\x00\x00\x00\x00\x00\x00\x00\x00\x00\x00\x00\x00\x00\x00\xd6\x01\x00\x00\x00\x00\x00\x00\xf2\x01\x00\x00\x00\x00\x00\x00\x00\x00\x00\x00\x00\x00\x00\x00\xd8\x01\x00\x00\x00\x00\x00\x00\xcc\x01\x00\x00\x00\x00\x00\x00\x00\x00\x00\x00\x00\x00\x00\x00\xd8\x01\x00\x00\x00\x00\x00\x00\xce\x01\x00\x00\x00\x00\x00\x00\x00\x00\x00\x00\x00\x00\x00\x00\xd8\x01\x00\x00\x00\x00\x00\x00\xd0\x01\x00\x00\x00\x00\x00\x00\x00\x00\x00\x00\x00\x00\x00\x00\xd8\x01\x00\x00\x00\x00\x00\x00\xd2\x01\x00\x00\x00\x00\x00\x00\x00\x00\x00\x00\x00\x00\x00\x00\xd8\x01\x00\x00\x00\x00\x00\x00\xd4\x01\x00\x00\x00\x00\x00\x00\x00\x00\x00\x00\x00\x00\x00\x00\xd8\x01\x00\x00\x00\x00\x00\x00\xd6\x01\x00\x00\x00\x00\x00\x00\x00\x00\x00\x00\x00\x00\x00\x00\xd8\x01\x00\x00\x00\x00\x00\x00\xd8\x01\x00\x00\x00\x00\x00\x00\x00\x00\x00\x00\x00\x00\x00\x00\xd8\x01\x00\x00\x00\x00\x00\x00\xda\x01\x00\x00\x00\x00\x00\x00\x00\x00\x00\x00\x00\x00\x00\x00\xd8\x01\x00\x00\x00\x00\x00\x00\xdc\x01\x00\x00\x00\x00\x00\x00\x00\x00\x00\x00\x00\x00\x00\x00\xd8\x01\x00\x00\x00\x00\x00\x00\xde\x01\x00\x00\x00\x00\x00\x00\x00\x00\x00\x00\x00\x00\x00\x00\xd8\x01\x00\x00\x00\x00\x00\x00\xe0\x01\x00\x00\x00\x00\x00\x00\x00\x00\x00\x00\x00\x00\x00\x00\xd8\x01\x00\x00\x00\x00\x00\x00\xe2\x01\x00\x00\x00\x00\x00\x00\x00\x00\x00\x00\x00\x00\x00\x00\xd8\x01\x00\x00\x00\x00\x00\x00\xe4\x01\x00\x00\x00\x00\x00\x00\x00\x00\x00\x00\x00\x00\x00\x00\xd8\x01\x00\x00\x00\x00\x00\x00\xe6\x01\x00\x00\x00\x00\x00\x00\x00\x00\x00\x00\x00\x00\x00\x00\xd8\x01\x00\x00\x00\x00\x00\x00\xe8\x01\x00\x00\x00\x00\x00\x00\x00\x00\x00\x00\x00\x00\x00\x00\xd8\x01\x00\x00\x00\x00\x00\x00\xea\x01\x00\x00\x00\x00\x00\x00\x00\x00\x00\x00\x00\x00\x00\x00\xd8\x01\x00\x00\x00\x00\x00\x00\xec\x01\x00\x00\x00\x00\x00\x00\x00\x00\x00\x00\x00\x00\x00\x00\xd8\x01\x00\x00\x00\x00\x00\x00\xee\x01\x00\x00\x00\x00\x00\x00\x00\x00\x00\x00\x00\x00\x00\x00\xd8\x01\x00\x00\x00\x00\x00\x00\xf0\x01\x00\x00\x00\x00\x00\x00\x00\x00\x00\x00\x00\x00\x00\x00\xd8\x01\x00\x00\x00\x00\x00\x00\xf2\x01\x00\x00\x00\x00\x00\x00\x00\x00\x00\x00\x00\x00\x00\x00\xda\x01\x00\x00\x00\x00\x00\x00\xcc\x01\x00\x00\x00\x00\x00\x00\x00\x00\x00\x00\x00\x00\x00\x00\xda\x01\x00\x00\x00\x00\x00\x00\xce\x01\x00\x00\x00\x00\x00\x00\x00\x00\x00\x00\x00\x00\x00\x00\xda\x01\x00\x00\x00\x00\x00\x00\xd0\x01\x00\x00\x00\x00\x00\x00\x00\x00\x00\x00\x00\x00\x00\x00\xda\x01\x00\x00\x00\x00\x00\x00\xd2\x01\x00\x00\x00\x00\x00\x00\x00\x00\x00\x00\x00\x00\x00\x00\xda\x01\x00\x00\x00\x00\x00\x00\xd4\x01\x00\x00\x00\x00\x00\x00\x00\x00\x00\x00\x00\x00\x00\x00\xda\x01\x00\x00\x00\x00\x00\x00\xd6\x01\x00\x00\x00\x00\x00\x00\x00\x00\x00\x00\x00\x00\x00\x00\xda\x01\x00\x00\x00\x00\x00\x00\xd8\x01\x00\x00\x00\x00\x00\x00\x00\x00\x00\x00\x00\x00\x00\x00\xda\x01\x00\x00\x00\x00\x00\x00\xda\x01\x00\x00\x00\x00\x00\x00\x00\x00\x00\x00\x00\x00\x00\x00\xda\x01\x00\x00\x00\x00\x00\x00\xdc\x01\x00\x00\x00\x00\x00\x00\x00\x00\x00\x00\x00\x00\x00\x00\xda\x01\x00\x00\x00\x00\x00\x00\xde\x01\x00\x00\x00\x00\x00\x00\x00\x00\x00\x00\x00\x00\x00\x00\xda\x01\x00\x00\x00\x00\x00\x00\xe0\x01\x00\x00\x00\x00\x00\x00\x00\x00\x00\x00\x00\x00\x00\x00\xda\x01\x00\x00\x00\x00\x00\x00\xe2\x01\x00\x00\x00\x00\x00\x00\x00\x00\x00\x00\x00\x00\x00\x00\xda\x01\x00\x00\x00\x00\x00\x00\xe4\x01\x00\x00\x00\x00\x00\x00\x00\x00\x00\x00\x00\x00\x00\x00\xda\x01\x00\x00\x00\x00\x00\x00\xe6\x01\x00\x00\x00\x00\x00\x00\x00\x00\x00\x00\x00\x00\x00\x00\xda\x01\x00\x00\x00\x00\x00\x00\xe8\x01\x00\x00\x00\x00\x00\x00\x00\x00\x00\x00\x00\x00\x00\x00\xda\x01\x00\x00\x00\x00\x00\x00\xea\x01\x00\x00\x00\x00\x00\x00\x00\x00\x00\x00\x00\x00\x00\x00\xda\x01\x00\x00\x00\x00\x00\x00\xec\x01\x00\x00\x00\x00\x00\x00\x00\x00\x00\x00\x00\x00\x00\x00\xda\x01\x00\x00\x00\x00\x00\x00\xee\x01\x00\x00\x00\x00\x00\x00\x00\x00\x00\x00\x00\x00\x00\x00\xda\x01\x00\x00\x00\x00\x00\x00\xf0\x01\x00\x00\x00\x00\x00\x00\x00\x00\x00\x00\x00\x00\x00\x00\xda\x01\x00\x00\x00\x00\x00\x00\xf2\x01\x00\x00\x00\x00\x00\x00\x00\x00\x00\x00\x00\x00\x00\x00\xdc\x01\x00\x00\x00\x00\x00\x00\xcc\x01\x00\x00\x00\x00\x00\x00\x00\x00\x00\x00\x00\x00\x00\x00\xdc\x01\x00\x00\x00\x00\x00\x00\xce\x01\x00\x00\x00\x00\x00\x00\x00\x00\x00\x00\x00\x00\x00\x00\xdc\x01\x00\x00\x00\x00\x00\x00\xd0\x01\x00\x00\x00\x00\x00\x00\x00\x00\x00\x00\x00\x00\x00\x00\xdc\x01\x00\x00\x00\x00\x00\x00\xd2\x01\x00\x00\x00\x00\x00\x00\x00\x00\x00\x00\x00\x00\x00\x00\xdc\x01\x00\x00\x00\x00\x00\x00\xd4\x01\x00\x00\x00\x00\x00\x00\x00\x00\x00\x00\x00\x00\x00\x00\xdc\x01\x00\x00\x00\x00\x00\x00\xd6\x01\x00\x00\x00\x00\x00\x00\x00\x00\x00\x00\x00\x00\x00\x00\xdc\x01\x00\x00\x00\x00\x00\x00\xd8\x01\x00\x00\x00\x00\x00\x00\x00\x00\x00\x00\x00\x00\x00\x00\xdc\x01\x00\x00\x00\x00\x00\x00\xda\x01\x00\x00\x00\x00\x00\x00\x00\x00\x00\x00\x00\x00\x00\x00\xdc\x01\x00\x00\x00\x00\x00\x00\xdc\x01\x00\x00\x00\x00\x00\x00\x00\x00\x00\x00\x00\x00\x00\x00\xdc\x01\x00\x00\x00\x00\x00\x00\xde\x01\x00\x00\x00\x00\x00\x00\x00\x00\x00\x00\x00\x00\x00\x00\xdc\x01\x00\x00\x00\x00\x00\x00\xe0\x01\x00\x00\x00\x00\x00\x00\x00\x00\x00\x00\x00\x00\x00\x00\xdc\x01\x00\x00\x00\x00\x00\x00\xe2\x01\x00\x00\x00\x00\x00\x00\x00\x00\x00\x00\x00\x00\x00\x00\xdc\x01\x00\x00\x00\x00\x00\x00\xe4\x01\x00\x00\x00\x00\x00\x00\x00\x00\x00\x00\x00\x00\x00\x00\xdc\x01\x00\x00\x00\x00\x00\x00\xe6\x01\x00\x00\x00\x00\x00\x00\x00\x00\x00\x00\x00\x00\x00\x00\xdc\x01\x00\x00\x00\x00\x00\x00\xe8\x01\x00\x00\x00\x00\x00\x00\x00\x00\x00\x00\x00\x00\x00\x00\xdc\x01\x00\x00\x00\x00\x00\x00\xea\x01\x00\x00\x00\x00\x00\x00\x00\x00\x00\x00\x00\x00\x00\x00\xdc\x01\x00\x00\x00\x00\x00\x00\xec\x01\x00\x00\x00\x00\x00\x00\x00\x00\x00\x00\x00\x00\x00\x00\xdc\x01\x00\x00\x00\x00\x00\x00\xee\x01\x00\x00\x00\x00\x00\x00\x00\x00\x00\x00\x00\x00\x00\x00\xdc\x01\x00\x00\x00\x00\x00\x00\xf0\x01\x00\x00\x00\x00\x00\x00\x00\x00\x00\x00\x00\x00\x00\x00\xdc\x01\x00\x00\x00\x00\x00\x00\xf2\x01\x00\x00\x00\x00\x00\x00\x00\x00\x00\x00\x00\x00\x00\x00\xde\x01\x00\x00\x00\x00\x00\x00\xcc\x01\x00\x00\x00\x00\x00\x00\x00\x00\x00\x00\x00\x00\x00\x00\xde\x01\x00\x00\x00\x00\x00\x00\xce\x01\x00\x00\x00\x00\x00\x00\x00\x00\x00\x00\x00\x00\x00\x00\xde\x01\x00\x00\x00\x00\x00\x00\xd0\x01\x00\x00\x00\x00\x00\x00\x00\x00\x00\x00\x00\x00\x00\x00\xde\x01\x00\x00\x00\x00\x00\x00\xd2\x01\x00\x00\x00\x00\x00\x00\x00\x00\x00\x00\x00\x00\x00\x00\xde\x01\x00\x00\x00\x00\x00\x00\xd4\x01\x00\x00\x00\x00\x00\x00\x00\x00\x00\x00\x00\x00\x00\x00\xde\x01\x00\x00\x00\x00\x00\x00\xd6\x01\x00\x00\x00\x00\x00\x00\x00\x00\x00\x00\x00\x00\x00\x00\xde\x01\x00\x00\x00\x00\x00\x00\xd8\x01\x00\x00\x00\x00\x00\x00\x00\x00\x00\x00\x00\x00\x00\x00\xde\x01\x00\x00\x00\x00\x00\x00\xda\x01\x00\x00\x00\x00\x00\x00\x00\x00\x00\x00\x00\x00\x00\x00\xde\x01\x00\x00\x00\x00\x00\x00\xdc\x01\x00\x00\x00\x00\x00\x00\x00\x00\x00\x00\x00\x00\x00\x00\xde\x01\x00\x00\x00\x00\x00\x00\xde\x01\x00\x00\x00\x00\x00\x00\x00\x00\x00\x00\x00\x00\x00\x00\xde\x01\x00\x00\x00\x00\x00\x00\xe0\x01\x00\x00\x00\x00\x00\x00\x00\x00\x00\x00\x00\x00\x00\x00\xde\x01\x00\x00\x00\x00\x00\x00\xe2\x01\x00\x00\x00\x00\x00\x00\x00\x00\x00\x00\x00\x00\x00\x00\xde\x01\x00\x00\x00\x00\x00\x00\xe4\x01\x00\x00\x00\x00\x00\x00\x00\x00\x00\x00\x00\x00\x00\x00\xde\x01\x00\x00\x00\x00\x00\x00\xe6\x01\x00\x00\x00\x00\x00\x00\x00\x00\x00\x00\x00\x00\x00\x00\xde\x01\x00\x00\x00\x00\x00\x00\xe8\x01\x00\x00\x00\x00\x00\x00\x00\x00\x00\x00\x00\x00\x00\x00\xde\x01\x00\x00\x00\x00\x00\x00\xea\x01\x00\x00\x00\x00\x00\x00\x00\x00\x00\x00\x00\x00\x00\x00\xde\x01\x00\x00\x00\x00\x00\x00\xec\x01\x00\x00\x00\x00\x00\x00\x00\x00\x00\x00\x00\x00\x00\x00\xde\x01\x00\x00\x00\x00\x00\x00\xee\x01\x00\x00\x00\x00\x00\x00\x00\x00\x00\x00\x00\x00\x00\x00\xde\x01\x00\x00\x00\x00\x00\x00\xf0\x01\x00\x00\x00\x00\x00\x00\x00\x00\x00\x00\x00\x00\x00\x00\xde\x01\x00\x00\x00\x00\x00\x00\xf2\x01\x00\x00\x00\x00\x00\x00\x00\x00\x00\x00\x00\x00\x00\x00\xe0\x01\x00\x00\x00\x00\x00\x00\xcc\x01\x00\x00\x00\x00\x00\x00\x00\x00\x00\x00\x00\x00\x00\x00\xe0\x01\x00\x00\x00\x00\x00\x00\xce\x01\x00\x00\x00\x00\x00\x00\x00\x00\x00\x00\x00\x00\x00\x00\xe0\x01\x00\x00\x00\x00\x00\x00\xd0\x01\x00\x00\x00\x00\x00\x00\x00\x00\x00\x00\x00\x00\x00\x00\xe0\x01\x00\x00\x00\x00\x00\x00\xd2\x01\x00\x00\x00\x00\x00\x00\x00\x00\x00\x00\x00\x00\x00\x00\xe0\x01\x00\x00\x00\x00\x00\x00\xd4\x01\x00\x00\x00\x00\x00\x00\x00\x00\x00\x00\x00\x00\x00\x00\xe0\x01\x00\x00\x00\x00\x00\x00\xd6\x01\x00\x00\x00\x00\x00\x00\x00\x00\x00\x00\x00\x00\x00\x00\xe0\x01\x00\x00\x00\x00\x00\x00\xd8\x01\x00\x00\x00\x00\x00\x00\x00\x00\x00\x00\x00\x00\x00\x00\xe0\x01\x00\x00\x00\x00\x00\x00\xda\x01\x00\x00\x00\x00\x00\x00\x00\x00\x00\x00\x00\x00\x00\x00\xe0\x01\x00\x00\x00\x00\x00\x00\xdc\x01\x00\x00\x00\x00\x00\x00\x00\x00\x00\x00\x00\x00\x00\x00\xe0\x01\x00\x00\x00\x00\x00\x00\xde\x01\x00\x00\x00\x00\x00\x00\x00\x00\x00\x00\x00\x00\x00\x00\xe0\x01\x00\x00\x00\x00\x00\x00\xe0\x01\x00\x00\x00\x00\x00\x00\x00\x00\x00\x00\x00\x00\x00\x00\xe0\x01\x00\x00\x00\x00\x00\x00\xe2\x01\x00\x00\x00\x00\x00\x00\x00\x00\x00\x00\x00\x00\x00\x00\xe0\x01\x00\x00\x00\x00\x00\x00\xe4\x01\x00\x00\x00\x00\x00\x00\x00\x00\x00\x00\x00\x00\x00\x00\xe0\x01\x00\x00\x00\x00\x00\x00\xe6\x01\x00\x00\x00\x00\x00\x00\x00\x00\x00\x00\x00\x00\x00\x00\xe0\x01\x00\x00\x00\x00\x00\x00\xe8\x01\x00\x00\x00\x00\x00\x00\x00\x00\x00\x00\x00\x00\x00\x00\xe0\x01\x00\x00\x00\x00\x00\x00\xea\x01\x00\x00\x00\x00\x00\x00\x00\x00\x00\x00\x00\x00\x00\x00\xe0\x01\x00\x00\x00\x00\x00\x00\xec\x01\x00\x00\x00\x00\x00\x00\x00\x00\x00\x00\x00\x00\x00\x00\xe0\x01\x00\x00\x00\x00\x00\x00\xee\x01\x00\x00\x00\x00\x00\x00\x00\x00\x00\x00\x00\x00\x00\x00\xe0\x01\x00\x00\x00\x00\x00\x00\xf0\x01\x00\x00\x00\x00\x00\x00\x00\x00\x00\x00\x00\x00\x00\x00\xe0\x01\x00\x00\x00\x00\x00\x00\xf2\x01\x00\x00\x00\x00\x00\x00\x00\x00\x00\x00\x00\x00\x00\x00\xe2\x01\x00\x00\x00\x00\x00\x00\xcc\x01\x00\x00\x00\x00\x00\x00\x00\x00\x00\x00\x00\x00\x00\x00\xe2\x01\x00\x00\x00\x00\x00\x00\xce\x01\x00\x00\x00\x00\x00\x00\x00\x00\x00\x00\x00\x00\x00\x00\xe2\x01\x00\x00\x00\x00\x00\x00\xd0\x01\x00\x00\x00\x00\x00\x00\x00\x00\x00\x00\x00\x00\x00\x00\xe2\x01\x00\x00\x00\x00\x00\x00\xd2\x01\x00\x00\x00\x00\x00\x00\x00\x00\x00\x00\x00\x00\x00\x00\xe2\x01\x00\x00\x00\x00\x00\x00\xd4\x01\x00\x00\x00\x00\x00\x00\x00\x00\x00\x00\x00\x00\x00\x00\xe2\x01\x00\x00\x00\x00\x00\x00\xd6\x01\x00\x00\x00\x00\x00\x00\x00\x00\x00\x00\x00\x00\x00\x00\xe2\x01\x00\x00\x00\x00\x00\x00\xd8\x01\x00\x00\x00\x00\x00\x00\x00\x00\x00\x00\x00\x00\x00\x00\xe2\x01\x00\x00\x00\x00\x00\x00\xda\x01\x00\x00\x00\x00\x00\x00\x00\x00\x00\x00\x00\x00\x00\x00\xe2\x01\x00\x00\x00\x00\x00\x00\xdc\x01\x00\x00\x00\x00\x00\x00\x00\x00\x00\x00\x00\x00\x00\x00\xe2\x01\x00\x00\x00\x00\x00\x00\xde\x01\x00\x00\x00\x00\x00\x00\x00\x00\x00\x00\x00\x00\x00\x00\xe2\x01\x00\x00\x00\x00\x00\x00\xe0\x01\x00\x00\x00\x00\x00\x00\x00\x00\x00\x00\x00\x00\x00\x00\xe2\x01\x00\x00\x00\x00\x00\x00\xe2\x01\x00\x00\x00\x00\x00\x00\x00\x00\x00\x00\x00\x00\x00\x00\xe2\x01\x00\x00\x00\x00\x00\x00\xe4\x01\x00\x00\x00\x00\x00\x00\x00\x00\x00\x00\x00\x00\x00\x00\xe2\x01\x00\x00\x00\x00\x00\x00\xe6\x01\x00\x00\x00\x00\x00\x00\x00\x00\x00\x00\x00\x00\x00\x00\xe2\x01\x00\x00\x00\x00\x00\x00\xe8\x01\x00\x00\x00\x00\x00\x00\x00\x00\x00\x00\x00\x00\x00\x00\xe2\x01\x00\x00\x00\x00\x00\x00\xea\x01\x00\x00\x00\x00\x00\x00\x00\x00\x00\x00\x00\x00\x00\x00\xe2\x01\x00\x00\x00\x00\x00\x00\xec\x01\x00\x00\x00\x00\x00\x00\x00\x00\x00\x00\x00\x00\x00\x00\xe2\x01\x00\x00\x00\x00\x00\x00\xee\x01\x00\x00\x00\x00\x00\x00\x00\x00\x00\x00\x00\x00\x00\x00\xe2\x01\x00\x00\x00\x00\x00\x00\xf0\x01\x00\x00\x00\x00\x00\x00\x00\x00\x00\x00\x00\x00\x00\x00\xe2\x01\x00\x00\x00\x00\x00\x00\xf2\x01\x00\x00\x00\x00\x00\x00\x00\x00\x00\x00\x00\x00\x00\x00\xe4\x01\x00\x00\x00\x00\x00\x00\xcc\x01\x00\x00\x00\x00\x00\x00\x00\x00\x00\x00\x00\x00\x00\x00\xe4\x01\x00\x00\x00\x00\x00\x00\xce\x01\x00\x00\x00\x00\x00\x00\x00\x00\x00\x00\x00\x00\x00\x00\xe4\x01\x00\x00\x00\x00\x00\x00\xd0\x01\x00\x00\x00\x00\x00\x00\x00\x00\x00\x00\x00\x00\x00\x00\xe4\x01\x00\x00\x00\x00\x00\x00\xd2\x01\x00\x00\x00\x00\x00\x00\x00\x00\x00\x00\x00\x00\x00\x00\xe4\x01\x00\x00\x00\x00\x00\x00\xd4\x01\x00\x00\x00\x00\x00\x00\x00\x00\x00\x00\x00\x00\x00\x00\xe4\x01\x00\x00\x00\x00\x00\x00\xd6\x01\x00\x00\x00\x00\x00\x00\x00\x00\x00\x00\x00\x00\x00\x00\xe4\x01\x00\x00\x00\x00\x00\x00\xd8\x01\x00\x00\x00\x00\x00\x00\x00\x00\x00\x00\x00\x00\x00\x00\xe4\x01\x00\x00\x00\x00\x00\x00\xda\x01\x00\x00\x00\x00\x00\x00\x00\x00\x00\x00\x00\x00\x00\x00\xe4\x01\x00\x00\x00\x00\x00\x00\xdc\x01\x00\x00\x00\x00\x00\x00\x00\x00\x00\x00\x00\x00\x00\x00\xe4\x01\x00\x00\x00\x00\x00\x00\xde\x01\x00\x00\x00\x00\x00\x00\x00\x00\x00\x00\x00\x00\x00\x00\xe4\x01\x00\x00\x00\x00\x00\x00\xe0\x01\x00\x00\x00\x00\x00\x00\x00\x00\x00\x00\x00\x00\x00\x00\xe4\x01\x00\x00\x00\x00\x00\x00\xe2\x01\x00\x00\x00\x00\x00\x00\x00\x00\x00\x00\x00\x00\x00\x00\xe4\x01\x00\x00\x00\x00\x00\x00\xe4\x01\x00\x00\x00\x00\x00\x00\x00\x00\x00\x00\x00\x00\x00\x00\xe4\x01\x00\x00\x00\x00\x00\x00\xe6\x01\x00\x00\x00\x00\x00\x00\x00\x00\x00\x00\x00\x00\x00\x00\xe4\x01\x00\x00\x00\x00\x00\x00\xe8\x01\x00\x00\x00\x00\x00\x00\x00\x00\x00\x00\x00\x00\x00\x00\xe4\x01\x00\x00\x00\x00\x00\x00\xea\x01\x00\x00\x00\x00\x00\x00\x00\x00\x00\x00\x00\x00\x00\x00\xe4\x01\x00\x00\x00\x00\x00\x00\xec\x01\x00\x00\x00\x00\x00\x00\x00\x00\x00\x00\x00\x00\x00\x00\xe4\x01\x00\x00\x00\x00\x00\x00\xee\x01\x00\x00\x00\x00\x00\x00\x00\x00\x00\x00\x00\x00\x00\x00\xe4\x01\x00\x00\x00\x00\x00\x00\xf0\x01\x00\x00\x00\x00\x00\x00\x00\x00\x00\x00\x00\x00\x00\x00\xe4\x01\x00\x00\x00\x00\x00\x00\xf2\x01\x00\x00\x00\x00\x00\x00\x00\x00\x00\x00\x00\x00\x00\x00\xe6\x01\x00\x00\x00\x00\x00\x00\xcc\x01\x00\x00\x00\x00\x00\x00\x00\x00\x00\x00\x00\x00\x00\x00\xe6\x01\x00\x00\x00\x00\x00\x00\xce\x01\x00\x00\x00\x00\x00\x00\x00\x00\x00\x00\x00\x00\x00\x00\xe6\x01\x00\x00\x00\x00\x00\x00\xd0\x01\x00\x00\x00\x00\x00\x00\x00\x00\x00\x00\x00\x00\x00\x00\xe6\x01\x00\x00\x00\x00\x00\x00\xd2\x01\x00\x00\x00\x00\x00\x00\x00\x00\x00\x00\x00\x00\x00\x00\xe6\x01\x00\x00\x00\x00\x00\x00\xd4\x01\x00\x00\x00\x00\x00\x00\x00\x00\x00\x00\x00\x00\x00\x00\xe6\x01\x00\x00\x00\x00\x00\x00\xd6\x01\x00\x00\x00\x00\x00\x00\x00\x00\x00\x00\x00\x00\x00\x00\xe6\x01\x00\x00\x00\x00\x00\x00\xd8\x01\x00\x00\x00\x00\x00\x00\x00\x00\x00\x00\x00\x00\x00\x00\xe6\x01\x00\x00\x00\x00\x00\x00\xda\x01\x00\x00\x00\x00\x00\x00\x00\x00\x00\x00\x00\x00\x00\x00\xe6\x01\x00\x00\x00\x00\x00\x00\xdc\x01\x00\x00\x00\x00\x00\x00\x00\x00\x00\x00\x00\x00\x00\x00\xe6\x01\x00\x00\x00\x00\x00\x00\xde\x01\x00\x00\x00\x00\x00\x00\x00\x00\x00\x00\x00\x00\x00\x00\xe6\x01\x00\x00\x00\x00\x00\x00\xe0\x01\x00\x00\x00\x00\x00\x00\x00\x00\x00\x00\x00\x00\x00\x00\xe6\x01\x00\x00\x00\x00\x00\x00\xe2\x01\x00\x00\x00\x00\x00\x00\x00\x00\x00\x00\x00\x00\x00\x00\xe6\x01\x00\x00\x00\x00\x00\x00\xe4\x01\x00\x00\x00\x00\x00\x00\x00\x00\x00\x00\x00\x00\x00\x00\xe6\x01\x00\x00\x00\x00\x00\x00\xe6\x01\x00\x00\x00\x00\x00\x00\x00\x00\x00\x00\x00\x00\x00\x00\xe6\x01\x00\x00\x00\x00\x00\x00\xe8\x01\x00\x00\x00\x00\x00\x00\x00\x00\x00\x00\x00\x00\x00\x00\xe6\x01\x00\x00\x00\x00\x00\x00\xea\x01\x00\x00\x00\x00\x00\x00\x00\x00\x00\x00\x00\x00\x00\x00\xe6\x01\x00\x00\x00\x00\x00\x00\xec\x01\x00\x00\x00\x00\x00\x00\x00\x00\x00\x00\x00\x00\x00\x00\xe6\x01\x00\x00\x00\x00\x00\x00\xee\x01\x00\x00\x00\x00\x00\x00\x00\x00\x00\x00\x00\x00\x00\x00\xe6\x01\x00\x00\x00\x00\x00\x00\xf0\x01\x00\x00\x00\x00\x00\x00\x00\x00\x00\x00\x00\x00\x00\x00\xe6\x01\x00\x00\x00\x00\x00\x00\xf2\x01\x00\x00\x00\x00\x00\x00\x00\x00\x00\x00\x00\x00\x00\x00\xe8\x01\x00\x00\x00\x00\x00\x00\xcc\x01\x00\x00\x00\x00\x00\x00\x00\x00\x00\x00\x00\x00\x00\x00\xe8\x01\x00\x00\x00\x00\x00\x00\xce\x01\x00\x00\x00\x00\x00\x00\x00\x00\x00\x00\x00\x00\x00\x00\xe8\x01\x00\x00\x00\x00\x00\x00\xd0\x01\x00\x00\x00\x00\x00\x00\x00\x00\x00\x00\x00\x00\x00\x00\xe8\x01\x00\x00\x00\x00\x00\x00\xd2\x01\x00\x00\x00\x00\x00\x00\x00\x00\x00\x00\x00\x00\x00\x00\xe8\x01\x00\x00\x00\x00\x00\x00\xd4\x01\x00\x00\x00\x00\x00\x00\x00\x00\x00\x00\x00\x00\x00\x00\xe8\x01\x00\x00\x00\x00\x00\x00\xd6\x01\x00\x00\x00\x00\x00\x00\x00\x00\x00\x00\x00\x00\x00\x00\xe8\x01\x00\x00\x00\x00\x00\x00\xd8\x01\x00\x00\x00\x00\x00\x00\x00\x00\x00\x00\x00\x00\x00\x00\xe8\x01\x00\x00\x00\x00\x00\x00\xda\x01\x00\x00\x00\x00\x00\x00\x00\x00\x00\x00\x00\x00\x00\x00\xe8\x01\x00\x00\x00\x00\x00\x00\xdc\x01\x00\x00\x00\x00\x00\x00\x00\x00\x00\x00\x00\x00\x00\x00\xe8\x01\x00\x00\x00\x00\x00\x00\xde\x01\x00\x00\x00\x00\x00\x00\x00\x00\x00\x00\x00\x00\x00\x00\xe8\x01\x00\x00\x00\x00\x00\x00\xe0\x01\x00\x00\x00\x00\x00\x00\x00\x00\x00\x00\x00\x00\x00\x00\xe8\x01\x00\x00\x00\x00\x00\x00\xe2\x01\x00\x00\x00\x00\x00\x00\x00\x00\x00\x00\x00\x00\x00\x00\xe8\x01\x00\x00\x00\x00\x00\x00\xe4\x01\x00\x00\x00\x00\x00\x00\x00\x00\x00\x00\x00\x00\x00\x00\xe8\x01\x00\x00\x00\x00\x00\x00\xe6\x01\x00\x00\x00\x00\x00\x00\x00\x00\x00\x00\x00\x00\x00\x00\xe8\x01\x00\x00\x00\x00\x00\x00\xe8\x01\x00\x00\x00\x00\x00\x00\x00\x00\x00\x00\x00\x00\x00\x00\xe8\x01\x00\x00\x00\x00\x00\x00\xea\x01\x00\x00\x00\x00\x00\x00\x00\x00\x00\x00\x00\x00\x00\x00\xe8\x01\x00\x00\x00\x00\x00\x00\xec\x01\x00\x00\x00\x00\x00\x00\x00\x00\x00\x00\x00\x00\x00\x00\xe8\x01\x00\x00\x00\x00\x00\x00\xee\x01\x00\x00\x00\x00\x00\x00\x00\x00\x00\x00\x00\x00\x00\x00\xe8\x01\x00\x00\x00\x00\x00\x00\xf0\x01\x00\x00\x00\x00\x00\x00\x00\x00\x00\x00\x00\x00\x00\x00\xe8\x01\x00\x00\x00\x00\x00\x00\xf2\x01\x00\x00\x00\x00\x00\x00\x00\x00\x00\x00\x00\x00\x00\x00\xea\x01\x00\x00\x00\x00\x00\x00\xcc\x01\x00\x00\x00\x00\x00\x00\x00\x00\x00\x00\x00\x00\x00\x00\xea\x01\x00\x00\x00\x00\x00\x00\xce\x01\x00\x00\x00\x00\x00\x00\x00\x00\x00\x00\x00\x00\x00\x00\xea\x01\x00\x00\x00\x00\x00\x00\xd0\x01\x00\x00\x00\x00\x00\x00\x00\x00\x00\x00\x00\x00\x00\x00\xea\x01\x00\x00\x00\x00\x00\x00\xd2\x01\x00\x00\x00\x00\x00\x00\x00\x00\x00\x00\x00\x00\x00\x00\xea\x01\x00\x00\x00\x00\x00\x00\xd4\x01\x00\x00\x00\x00\x00\x00\x00\x00\x00\x00\x00\x00\x00\x00\xea\x01\x00\x00\x00\x00\x00\x00\xd6\x01\x00\x00\x00\x00\x00\x00\x00\x00\x00\x00\x00\x00\x00\x00\xea\x01\x00\x00\x00\x00\x00\x00\xd8\x01\x00\x00\x00\x00\x00\x00\x00\x00\x00\x00\x00\x00\x00\x00\xea\x01\x00\x00\x00\x00\x00\x00\xda\x01\x00\x00\x00\x00\x00\x00\x00\x00\x00\x00\x00\x00\x00\x00\xea\x01\x00\x00\x00\x00\x00\x00\xdc\x01\x00\x00\x00\x00\x00\x00\x00\x00\x00\x00\x00\x00\x00\x00\xea\x01\x00\x00\x00\x00\x00\x00\xde\x01\x00\x00\x00\x00\x00\x00\x00\x00\x00\x00\x00\x00\x00\x00\xea\x01\x00\x00\x00\x00\x00\x00\xe0\x01\x00\x00\x00\x00\x00\x00\x00\x00\x00\x00\x00\x00\x00\x00\xea\x01\x00\x00\x00\x00\x00\x00\xe2\x01\x00\x00\x00\x00\x00\x00\x00\x00\x00\x00\x00\x00\x00\x00\xea\x01\x00\x00\x00\x00\x00\x00\xe4\x01\x00\x00\x00\x00\x00\x00\x00\x00\x00\x00\x00\x00\x00\x00\xea\x01\x00\x00\x00\x00\x00\x00\xe6\x01\x00\x00\x00\x00\x00\x00\x00\x00\x00\x00\x00\x00\x00\x00\xea\x01\x00\x00\x00\x00\x00\x00\xe8\x01\x00\x00\x00\x00\x00\x00\x00\x00\x00\x00\x00\x00\x00\x00\xea\x01\x00\x00\x00\x00\x00\x00\xea\x01\x00\x00\x00\x00\x00\x00\x00\x00\x00\x00\x00\x00\x00\x00\xea\x01\x00\x00\x00\x00\x00\x00\xec\x01\x00\x00\x00\x00\x00\x00\x00\x00\x00\x00\x00\x00\x00\x00\xea\x01\x00\x00\x00\x00\x00\x00\xee\x01\x00\x00\x00\x00\x00\x00\x00\x00\x00\x00\x00\x00\x00\x00\xea\x01\x00\x00\x00\x00\x00\x00\xf0\x01\x00\x00\x00\x00\x00\x00\x00\x00\x00\x00\x00\x00\x00\x00\xea\x01\x00\x00\x00\x00\x00\x00\xf2\x01\x00\x00\x00\x00\x00\x00\x00\x00\x00\x00\x00\x00\x00\x00\xec\x01\x00\x00\x00\x00\x00\x00\xcc\x01\x00\x00\x00\x00\x00\x00\x00\x00\x00\x00\x00\x00\x00\x00\xec\x01\x00\x00\x00\x00\x00\x00\xce\x01\x00\x00\x00\x00\x00\x00\x00\x00\x00\x00\x00\x00\x00\x00\xec\x01\x00\x00\x00\x00\x00\x00\xd0\x01\x00\x00\x00\x00\x00\x00\x00\x00\x00\x00\x00\x00\x00\x00\xec\x01\x00\x00\x00\x00\x00\x00\xd2\x01\x00\x00\x00\x00\x00\x00\x00\x00\x00\x00\x00\x00\x00\x00\xec\x01\x00\x00\x00\x00\x00\x00\xd4\x01\x00\x00\x00\x00\x00\x00\x00\x00\x00\x00\x00\x00\x00\x00\xec\x01\x00\x00\x00\x00\x00\x00\xd6\x01\x00\x00\x00\x00\x00\x00\x00\x00\x00\x00\x00\x00\x00\x00\xec\x01\x00\x00\x00\x00\x00\x00\xd8\x01\x00\x00\x00\x00\x00\x00\x00\x00\x00\x00\x00\x00\x00\x00\xec\x01\x00\x00\x00\x00\x00\x00\xda\x01\x00\x00\x00\x00\x00\x00\x00\x00\x00\x00\x00\x00\x00\x00\xec\x01\x00\x00\x00\x00\x00\x00\xdc\x01\x00\x00\x00\x00\x00\x00\x00\x00\x00\x00\x00\x00\x00\x00\xec\x01\x00\x00\x00\x00\x00\x00\xde\x01\x00\x00\x00\x00\x00\x00\x00\x00\x00\x00\x00\x00\x00\x00\xec\x01\x00\x00\x00\x00\x00\x00\xe0\x01\x00\x00\x00\x00\x00\x00\x00\x00\x00\x00\x00\x00\x00\x00\xec\x01\x00\x00\x00\x00\x00\x00\xe2\x01\x00\x00\x00\x00\x00\x00\x00\x00\x00\x00\x00\x00\x00\x00\xec\x01\x00\x00\x00\x00\x00\x00\xe4\x01\x00\x00\x00\x00\x00\x00\x00\x00\x00\x00\x00\x00\x00\x00\xec\x01\x00\x00\x00\x00\x00\x00\xe6\x01\x00\x00\x00\x00\x00\x00\x00\x00\x00\x00\x00\x00\x00\x00\xec\x01\x00\x00\x00\x00\x00\x00\xe8\x01\x00\x00\x00\x00\x00\x00\x00\x00\x00\x00\x00\x00\x00\x00\xec\x01\x00\x00\x00\x00\x00\x00\xea\x01\x00\x00\x00\x00\x00\x00\x00\x00\x00\x00\x00\x00\x00\x00\xec\x01\x00\x00\x00\x00\x00\x00\xec\x01\x00\x00\x00\x00\x00\x00\x00\x00\x00\x00\x00\x00\x00\x00\xec\x01\x00\x00\x00\x00\x00\x00\xee\x01\x00\x00\x00\x00\x00\x00\x00\x00\x00\x00\x00\x00\x00\x00\xec\x01\x00\x00\x00\x00\x00\x00\xf0\x01\x00\x00\x00\x00\x00\x00\x00\x00\x00\x00\x00\x00\x00\x00\xec\x01\x00\x00\x00\x00\x00\x00\xf2\x01\x00\x00\x00\x00\x00\x00\x00\x00\x00\x00\x00\x00\x00\x00\xee\x01\x00\x00\x00\x00\x00\x00\xcc\x01\x00\x00\x00\x00\x00\x00\x00\x00\x00\x00\x00\x00\x00\x00\xee\x01\x00\x00\x00\x00\x00\x00\xce\x01\x00\x00\x00\x00\x00\x00\x00\x00\x00\x00\x00\x00\x00\x00\xee\x01\x00\x00\x00\x00\x00\x00\xd0\x01\x00\x00\x00\x00\x00\x00\x00\x00\x00\x00\x00\x00\x00\x00\xee\x01\x00\x00\x00\x00\x00\x00\xd2\x01\x00\x00\x00\x00\x00\x00\x00\x00\x00\x00\x00\x00\x00\x00\xee\x01\x00\x00\x00\x00\x00\x00\xd4\x01\x00\x00\x00\x00\x00\x00\x00\x00\x00\x00\x00\x00\x00\x00\xee\x01\x00\x00\x00\x00\x00\x00\xd6\x01\x00\x00\x00\x00\x00\x00\x00\x00\x00\x00\x00\x00\x00\x00\xee\x01\x00\x00\x00\x00\x00\x00\xd8\x01\x00\x00\x00\x00\x00\x00\x00\x00\x00\x00\x00\x00\x00\x00\xee\x01\x00\x00\x00\x00\x00\x00\xda\x01\x00\x00\x00\x00\x00\x00\x00\x00\x00\x00\x00\x00\x00\x00\xee\x01\x00\x00\x00\x00\x00\x00\xdc\x01\x00\x00\x00\x00\x00\x00\x00\x00\x00\x00\x00\x00\x00\x00\xee\x01\x00\x00\x00\x00\x00\x00\xde\x01\x00\x00\x00\x00\x00\x00\x00\x00\x00\x00\x00\x00\x00\x00\xee\x01\x00\x00\x00\x00\x00\x00\xe0\x01\x00\x00\x00\x00\x00\x00\x00\x00\x00\x00\x00\x00\x00\x00\xee\x01\x00\x00\x00\x00\x00\x00\xe2\x01\x00\x00\x00\x00\x00\x00\x00\x00\x00\x00\x00\x00\x00\x00\xee\x01\x00\x00\x00\x00\x00\x00\xe4\x01\x00\x00\x00\x00\x00\x00\x00\x00\x00\x00\x00\x00\x00\x00\xee\x01\x00\x00\x00\x00\x00\x00\xe6\x01\x00\x00\x00\x00\x00\x00\x00\x00\x00\x00\x00\x00\x00\x00\xee\x01\x00\x00\x00\x00\x00\x00\xe8\x01\x00\x00\x00\x00\x00\x00\x00\x00\x00\x00\x00\x00\x00\x00\xee\x01\x00\x00\x00\x00\x00\x00\xea\x01\x00\x00\x00\x00\x00\x00\x00\x00\x00\x00\x00\x00\x00\x00\xee\x01\x00\x00\x00\x00\x00\x00\xec\x01\x00\x00\x00\x00\x00\x00\x00\x00\x00\x00\x00\x00\x00\x00\xee\x01\x00\x00\x00\x00\x00\x00\xee\x01\x00\x00\x00\x00\x00\x00\x00\x00\x00\x00\x00\x00\x00\x00\xee\x01\x00\x00\x00\x00\x00\x00\xf0\x01\x00\x00\x00\x00\x00\x00\x00\x00\x00\x00\x00\x00\x00\x00\xee\x01\x00\x00\x00\x00\x00\x00\xf2\x01\x00\x00\x00\x00\x00\x00\x00\x00\x00\x00\x00\x00\x00\x00\xf0\x01\x00\x00\x00\x00\x00\x00\xcc\x01\x00\x00\x00\x00\x00\x00\x00\x00\x00\x00\x00\x00\x00\x00\xf0\x01\x00\x00\x00\x00\x00\x00\xce\x01\x00\x00\x00\x00\x00\x00\x00\x00\x00\x00\x00\x00\x00\x00\xf0\x01\x00\x00\x00\x00\x00\x00\xd0\x01\x00\x00\x00\x00\x00\x00\x00\x00\x00\x00\x00\x00\x00\x00\xf0\x01\x00\x00\x00\x00\x00\x00\xd2\x01\x00\x00\x00\x00\x00\x00\x00\x00\x00\x00\x00\x00\x00\x00\xf0\x01\x00\x00\x00\x00\x00\x00\xd4\x01\x00\x00\x00\x00\x00\x00\x00\x00\x00\x00\x00\x00\x00\x00\xf0\x01\x00\x00\x00\x00\x00\x00\xd6\x01\x00\x00\x00\x00\x00\x00\x00\x00\x00\x00\x00\x00\x00\x00\xf0\x01\x00\x00\x00\x00\x00\x00\xd8\x01\x00\x00\x00\x00\x00\x00\x00\x00\x00\x00\x00\x00\x00\x00\xf0\x01\x00\x00\x00\x00\x00\x00\xda\x01\x00\x00\x00\x00\x00\x00\x00\x00\x00\x00\x00\x00\x00\x00\xf0\x01\x00\x00\x00\x00\x00\x00\xdc\x01\x00\x00\x00\x00\x00\x00\x00\x00\x00\x00\x00\x00\x00\x00\xf0\x01\x00\x00\x00\x00\x00\x00\xde\x01\x00\x00\x00\x00\x00\x00\x00\x00\x00\x00\x00\x00\x00\x00\xf0\x01\x00\x00\x00\x00\x00\x00\xe0\x01\x00\x00\x00\x00\x00\x00\x00\x00\x00\x00\x00\x00\x00\x00\xf0\x01\x00\x00\x00\x00\x00\x00\xe2\x01\x00\x00\x00\x00\x00\x00\x00\x00\x00\x00\x00\x00\x00\x00\xf0\x01\x00\x00\x00\x00\x00\x00\xe4\x01\x00\x00\x00\x00\x00\x00\x00\x00\x00\x00\x00\x00\x00\x00\xf0\x01\x00\x00\x00\x00\x00\x00\xe6\x01\x00\x00\x00\x00\x00\x00\x00\x00\x00\x00\x00\x00\x00\x00\xf0\x01\x00\x00\x00\x00\x00\x00\xe8\x01\x00\x00\x00\x00\x00\x00\x00\x00\x00\x00\x00\x00\x00\x00\xf0\x01\x00\x00\x00\x00\x00\x00\xea\x01\x00\x00\x00\x00\x00\x00\x00\x00\x00\x00\x00\x00\x00\x00\xf0\x01\x00\x00\x00\x00\x00\x00\xec\x01\x00\x00\x00\x00\x00\x00\x00\x00\x00\x00\x00\x00\x00\x00\xf0\x01\x00\x00\x00\x00\x00\x00\xee\x01\x00\x00\x00\x00\x00\x00\x00\x00\x00\x00\x00\x00\x00\x00\xf0\x01\x00\x00\x00\x00\x00\x00\xf0\x01\x00\x00\x00\x00\x00\x00\x00\x00\x00\x00\x00\x00\x00\x00\xf0\x01\x00\x00\x00\x00\x00\x00\xf2\x01\x00\x00\x00\x00\x00\x00\x00\x00\x00\x00\x00\x00\x00\x00\xf2\x01\x00\x00\x00\x00\x00\x00\xcc\x01\x00\x00\x00\x00\x00\x00\x00\x00\x00\x00\x00\x00\x00\x00\xf2\x01\x00\x00\x00\x00\x00\x00\xce\x01\x00\x00\x00\x00\x00\x00\x00\x00\x00\x00\x00\x00\x00\x00\xf2\x01\x00\x00\x00\x00\x00\x00\xd0\x01\x00\x00\x00\x00\x00\x00\x00\x00\x00\x00\x00\x00\x00\x00\xf2\x01\x00\x00\x00\x00\x00\x00\xd2\x01\x00\x00\x00\x00\x00\x00\x00\x00\x00\x00\x00\x00\x00\x00\xf2\x01\x00\x00\x00\x00\x00\x00\xd4\x01\x00\x00\x00\x00\x00\x00\x00\x00\x00\x00\x00\x00\x00\x00\xf2\x01\x00\x00\x00\x00\x00\x00\xd6\x01\x00\x00\x00\x00\x00\x00\x00\x00\x00\x00\x00\x00\x00\x00\xf2\x01\x00\x00\x00\x00\x00\x00\xd8\x01\x00\x00\x00\x00\x00\x00\x00\x00\x00\x00\x00\x00\x00\x00\xf2\x01\x00\x00\x00\x00\x00\x00\xda\x01\x00\x00\x00\x00\x00\x00\x00\x00\x00\x00\x00\x00\x00\x00\xf2\x01\x00\x00\x00\x00\x00\x00\xdc\x01\x00\x00\x00\x00\x00\x00\x00\x00\x00\x00\x00\x00\x00\x00\xf2\x01\x00\x00\x00\x00\x00\x00\xde\x01\x00\x00\x00\x00\x00\x00\x00\x00\x00\x00\x00\x00\x00\x00\xf2\x01\x00\x00\x00\x00\x00\x00\xe0\x01\x00\x00\x00\x00\x00\x00\x00\x00\x00\x00\x00\x00\x00\x00\xf2\x01\x00\x00\x00\x00\x00\x00\xe2\x01\x00\x00\x00\x00\x00\x00\x00\x00\x00\x00\x00\x00\x00\x00\xf2\x01\x00\x00\x00\x00\x00\x00\xe4\x01\x00\x00\x00\x00\x00\x00\x00\x00\x00\x00\x00\x00\x00\x00\xf2\x01\x00\x00\x00\x00\x00\x00\xe6\x01\x00\x00\x00\x00\x00\x00\x00\x00\x00\x00\x00\x00\x00\x00\xf2\x01\x00\x00\x00\x00\x00\x00\xe8\x01\x00\x00\x00\x00\x00\x00\x00\x00\x00\x00\x00\x00\x00\x00\xf2\x01\x00\x00\x00\x00\x00\x00\xea\x01\x00\x00\x00\x00\x00\x00\x00\x00\x00\x00\x00\x00\x00\x00\xf2\x01\x00\x00\x00\x00\x00\x00\xec\x01\x00\x00\x00\x00\x00\x00\x00\x00\x00\x00\x00\x00\x00\x00\xf2\x01\x00\x00\x00\x00\x00\x00\xee\x01\x00\x00\x00\x00\x00\x00\x00\x00\x00\x00\x00\x00\x00\x00\xf2\x01\x00\x00\x00\x00\x00\x00\xf0\x01\x00\x00\x00\x00\x00\x00\x00\x00\x00\x00\x00\x00\x00\x00\xf2\x01\x00\x00\x00\x00\x00\x00\xf2\x01\x00\x00\x00\x00\x00\x00\x00\x00\x00\x00\x00\x00\x00\x00'
tbtp191
.