(cnumpy.core.multiarray
_reconstruct
p1
(cnumpy
ndarray
p2
(I0
tS'b'
tRp3
(I1
(I179
tcnumpy
dtype
p4
(S'f8'
I0
I1
tRp5
(I3
S'<'
NNNI-1
I-1
I0
tbI00
S'\x00\x00\x00\x00\x00\x00\x00@\xcd;\x7ff\x9e\xa0\x06@\x00\x00\x00\x00\x00\x00\x10@\xa8\xf4\x97\x9bw\xe3\x11@\xcd;\x7ff\x9e\xa0\x16@\x00\x00\x00\x00\x00\x00\x18@S[\xda:XL\x19@\xf3YaD+\xd8\x1c@\x00\x00\x00\x00\x00\x00 @\x07\xed\xaff\x0f~ @\xd9l\xdf\xccv\xf8 @\xa8\xf4\x97\x9bw\xe3!@\x00\x00\x00\x00\x00\x00$@\xf6/\x12_ee$@\xf3\xd9\xa8\xa4h\x8a%@\xcd;\x7ff\x9e\xa0&@\xa2\xa3\xb3\r\xe5R\'@\x00\x00\x00\x00\x00\x00(@9\xdcc\xb3\xbfT(@S[\xda:XL)@\x00\xff\x9f\x99\xcc\x9c)@\xfc\xeeci3\xd5*@\x00\x00\x00\x00\x00\x00,@\xc0\n\x1f\x00\xc6H,@\xf3YaD+\xd8,@\xe9\xfbv \xd5\x1e-@p\xc4\x9d9\x8dv.@htN\x17\xb2=/@\x00\x00\x00\x00\x00\x000@\xd0\xbaa?\xe0\x1f0@\x07\xed\xaff\x0f~0@\xd9l\xdf\xccv\xf80@\xa3\x14\xae\xa8\x87\x161@N\x017\xfac41@\xa8\xf4\x97\x9bw\xe31@\x00\x00\x00\x00\x00\x002@$\xf8\xd9p[\x1c2@\x9a.\x90!hp2@A\x87b\xc62\xde2@~\xc4#,B\xf92@bVc}\x9d\xb23@ST\xaf\x99\x8a\xcc3@\x00\x00\x00\x00\x00\x004@\xf0)#L\x89\x194@\xf6/\x12_ee4@\x88\x80v\xd5\\\x974@7\xf9\xcf\xdao\xe14@6\xd0\xd2x\xa2B5@\xf3\xd9\xa8\xa4h\x8a5@w\x03Is \xa25@\x00\x00\x00\x00\x00\x006@H\xaa*\x8f9\x176@\xd2\xf1}\x82U\\6@\xcd;\x7ff\x9e\xa06@\xeb\x12\xb2\xbb\xb2\xcd6@\xa2\xa3\xb3\r\xe5R7@\xe0\x11<m\xceh7@\x00\x00\x00\x00\x00\x008@&5w\xe2K\x158@lNy\x00\x85*8@9\xdcc\xb3\xbfT8@F\xc3\\\xa8\xc1i8@\x8a\xe3\x07\x1a\x17\xbd8@\xe4\x10\xe4sW\x0f9@S[\xda:XL9@F#O3\xb2t9@\x00\xff\x9f\x99\xcc\x9c9@\x00\x00\x00\x00\x00\x00:@Qf\x99\xcb\xa9\x13:@\xde4\xda\xfeNN:@8H\x9b\x97\xee\xae:@\xfc\xeeci3\xd5:@\xb4\xb8=iA\xe8:@\xef\rI\xf1\xf33;@\xb9e(k\xee\xc8;@\xbc\xfdP\xb5U\xdb;@\x00\x00\x00\x00\x00\x00<@)\x03\xec/C\x12<@\xc0\n\x1f\x00\xc6H<@?*\x98"\xe3l<@\xf7\x80Aq\xb9\xa2<@\xf3YaD+\xd8<@\xe9\xfbv \xd5\x1e=@\xb2\xdb]\xe3\x96\x87=@/\xa4\xe3\\m\xbb=@\x00\x00\x00\x00\x00\x00>@\xaf_\x109\x0c\x11>@[y\xf7F\xf7C>@p\xc4\x9d9\x8dv>@\xc5Bl?W\x87>@\xf2G\x9b\x0e\x18\x98>@\xb3\xa73\xa0`\x0c?@9\xf2\xee\xcc\xd9\x1c?@htN\x17\xb2=?@&\xecIP\x11N?@\'\xf2\x90In\x9f?@\x00\x00\x00\x00\x00\x00@@p`\xff\x00\xfe\x07@@\xd0\xbaa?\xe0\x1f@@v\xa3~{\xce\'@@\x10\xb3]\xc9`G@@\x0f\xab\xa8Q\xb6f@@\x07\xed\xaff\x0f~@@\xaa\xd9\xb1\xd3\x8d\x8d@@\xb9\x93\xe1k\xb0\xa4@@>9\x15\x8cW\xc3@@\xd9l\xdf\xccv\xf8@@\x00\x00\x00\x00\x00\x00A@)\x9ah\xdd\x85\x07A@\xa3\x14\xae\xa8\x87\x16A@f\xee@\x9f\x03\x1eA@N\x017\xfac4A@\xfb\xefg\xc4>CA@\xa8y\x0c\t\xd9vA@\xb9\xbaF\xca+~A@l\xd0\xe82\x1a\xb1A@\xa0\x96\xf4\xe0T\xb8A@\xd5?\x80N\xf3\xcdA@\xa8\xf4\x97\x9bw\xe3A@\x00\x00\x00\x00\x00\x00B@8\xd8\xbc\n\x1b\x07B@$\xf8\xd9p[\x1cB@+\xe5\x8a\xc6\x8f?B@\xbf\x8f+\t\x89[B@\x96`G\xb3\x80bB@\x9a.\x90!hpB@u\x85\x18\x11\xe0\x99B@X(/\x84y\xaeB@5 \x89\xa6\xcd\xc9B@A\x87b\xc62\xdeB@~\xc4#,B\xf9B@\x00\x00\x00\x00\x00\x00C@\xc3\xe7Zp\xbb\x06C@^\x9e\x9f\x85\xdf\x1aC@@\xff7s\x995C@\xc9\xe0>!B<C@VT\xdbd.PC@/vo\xf2\x9ejC@W\xb2\xdb\x1a\x9a\xa5C@bVc}\x9d\xb2C@:\xf0c\xf6\x1b\xb9C@ST\xaf\x99\x8a\xccC@\xf2m\xf7tt\xd9C@Mm\x9d\x8c\xc3\xecC@\x00\x00\x00\x00\x00\x00D@=\xf3\n\x8f\xe6\x1fD@\xcey?\xdc\x9a?D@\x93\xb7|K\xae\x84D@\x88\x80v\xd5\\\x97D@I\xe8[@\x93\x9dD@\xd0Z\x0e\xd2\x03\xcfD@\xbb\x91T\x7f\x17\x06E@u\xa6<oS\x18E@\x10H\x17\x80\x946E@6\xd0\xd2x\xa2BE@\xb1\xe1\xb2\xa5\xa3fE@\xeb\xfb\x12\x98\x8dxE@w\x03Is \xa2E@v\xf8\xd1\xb0\x84\xeeE@\xb4\x83\xd4\x01Z\xf4E@D:\x9d\xaf\xd0\x05F@\x14\xda\xbaX\x1f4F@!\xfc0n\xe2xF@\xcd;\x7ff\x9e\xa0F@\xd9\xd6\x07\xe3\xeb\xabF@\xeb\x12\xb2\xbb\xb2\xcdF@\x1d\xc0\xe2\x05\x90\x05G@E\x85+SaXG@N\xd7z\x91EnG@Y\x0bS#\xd1\x99G@\x89/\xe7L\xa8\nH@&5w\xe2K\x15H@\x0b\x0b=\x95\x1a5H@&\xf9\x01!C\xc2H@\xec\x06\x16x\xe8\xd6H@F#O3\xb2tI@\xf4\xbb\xd6\xb6\xbe~I@|\x86\xe2C),J@\x03\x17\xb7\x19\xbc\xdeJ@'
tbg1
(g2
(I0
tS'b'
tRp6
(I1
(I179
tg4
(S'O8'
I0
I1
tRp7
(I3
S'|'
NNNI-1
I-1
I63
tbI00
(lp8
(lp9
F5.4901135421052274
aF10.084462483216299
aF6.79499424763722
aF5.3019007269003851
aF4.5586040668122365
aF7.388328682190604
aF4.039042601742679
aF8.390067365309136
aF10.220526264557975
aF4.6467011287642208
aF6.2066234876893986
aF6.3723825879103231
aF4.8582435526332688
aF12.257996848444748
aF4.3354500203645614
aF9.949804222026998
aF18.316113321922607
aF15.941646831782677
aF14.858186902614534
aF6.6553395024473359
aF4.0262427942978718
aF4.0262427942978718
aF8.214169691202045
aF6.0150646483567698
aF4.0437216324818586
aF4.5856273540644246
aF5.7573160256086098
aF6.8723593937322391
aF14.412848535043342
aF4.9646999455268102
aF4.0439605151012099
aF4.6423072987865766
aF15.575952467410474
aF7.9031152374535303
aF13.885325764972784
aF7.3663806386451007
aF9.3563112226423186
aF5.0188492992309728
aF55.742763463491684
aF15.258454151259537
aF14.412848535043342
aF19.803504701356577
aF12.567497466044031
aF4.8664539234657411
aF5.3115719334095353
aF13.779673608794099
aF21.093485551913993
aF6.2103246808437973
aF26.534985466688951
aF7.3663806386451007
aF5.3359776147132862
aF5.1131951645774336
aF38.66522230118737
aF20.956337668469786
aF7.3582971370633175
aF7.4131117902506638
aF17.25745564610439
aF81.457650661352218
aF32.521597848667007
aF5.0608886357806711
aF12.450904791008472
aF36.436666223867988
aF5.9457110531675994
aF6.5440447781168132
aF6.0696601332824685
aF10.826878510626202
aF11.230285491513939
aF17.991576253153099
aF6.2407020853518809
aF12.852284551930094
aF7.9653515961293238
aF5.2209519124470205
aF5.2209519124470205
aF8.0752955440006531
aF25.090832938908235
aF5.147437360982309
aF94.224835956500257
aF8.0887304100743762
aF24.368028993810583
aF4.19852794491743
aF6.5477246985354043
aF150
aF28.834178827823337
aF59.517192297874786
aF5.60917309334683
aF5.1734101822776637
aF5.6011411201728833
aF5.2878030685493513
aF4.2822331863837775
aF8.0892563471340146
aF22.262637520189244
aF17.067895499583472
aF14.279491960197424
aF100.56352206958937
aF10.044657843229473
aF41.099733320621212
aF15.498267305517501
aF19.054691465928755
aF5.3921833979458142
aF25.536521447462185
aF24.533414924011737
aF5.9682638537612291
aF5.2757826057502655
aF18.479179572398181
aF19.952714755617393
aF6.5777466874753765
aF10.656329166802692
aF8.3136640629025038
aF14.767262424864455
aF7.4283843543137777
aF17.913413592794456
aF12.99727422535085
aF7.0586229104136464
aF24.00653844759492
aF23.997152783784571
aF9.8200502258862201
aF7.7030855901857294
aF5.4758977426631432
aF13.50705880938785
aF4.9134348094830358
aF17.855529373911899
aF5.7721922189363255
aF10.555925329616315
aF25.74675923215618
aF6.6797162430950436
aF10.257403883314538
aF6.3568493985476664
aF7.1257144709161366
aF4.9203421239070622
aF6.4291697008921709
aF11.236797146115336
aF7.4661482267674693
aF5.2412559750518142
aF22.650585347429839
aF4.8222591459915023
aF7.9259408370886764
aF14.458350477174278
aF14.398038221563759
aF25.931889699093865
aF9.7308387651019359
aF4.8480843804970135
aF19.210332082637329
aF4.8618389723289255
aF8.4901467435927032
aF8.6902715479666313
aF4.3889258600720211
aF9.9546315797744001
aF21.973287825796262
aF20.78895377741501
aF25.73697231879548
aF4.5467837746161592
aF8.7377286761188202
aF4.6730662991319321
aF4.9857364902395034
aF7.5743286985209295
aF20.893237894776163
aF11.553097305792164
aF4.122837524989194
aF4.4879228453032312
aF12.624769806388642
aF17.587842992212757
aF19.022986075289076
aF54.724369573434373
aF33.648140445184225
aF8.2127077000340165
aF6.0061319445341326
aF5.0146474804034256
aF6.0061319445341326
aF5.1453621184638791
aF9.2181026646632667
aF7.4707928749055696
aF5.2388575183354504
aF20.008480631017903
aF20.008480631017903
aF4.6168047093875089
aF4.955131093582537
aF13.724057285351032
aF5.0367648506652749
aF5.643450810420731
aF8.2127077000340165
aF5.4172911497571619
aF7.7801924076856608
aF8.8700360583807765
aF5.4172911497571619
aF4.2623940902424593
aF4.6700214234742248
aF6.1616746851084372
aF5.6625110821487681
aF5.9837285728285607
aF10.406426956271199
aF8.0366503215685725
aF4.2905398237480767
aF24.839538303340532
aF5.1736381682988863
aF12.500624513387997
aF5.0367648506652749
aF5.8449683459195612
aF21.834081729629958
aF14.308036666934477
aF16.342918394072598
aF6.0617973117514055
aF12.412231102597858
aF4.4932020974408431
aF4.2786884593765535
aF4.0037672307926542
aF21.468887496266589
aF7.0294983153099651
aF24.708289177765238
aF6.1389686153781611
aF4.0772244353308196
aF30.143876514075508
aF6.4277028022705593
aF7.13728723194032
aF5.3297190146105748
aF15.875153477688272
aF7.7394292300331742
aF5.0724181138712368
aF20.732175301862242
aF10.604304951176061
aF7.7665783516050837
aF9.8469934284163685
aF6.7798581932864579
aF5.6173852843099468
aF37.230869775548854
aF6.4925775550437947
aF5.9127160713847999
aF4.5795096109740712
aF4.0581496299639355
aF5.0907718334477039
aF6.3123382163652124
aF15.442995849501912
aF7.4953871182021032
aF7.7665783516050837
aF27.774484069271523
aF6.3902355021683803
aF8.1630330913193916
aF5.0593819551837367
aF14.625519813345178
aF10.584061775948328
aF32.760409465199459
aF6.8222789855902022
aF4.133921127682342
aF4.915847466863994
aF7.5584954510886178
aF7.0616587497304693
aF8.7976489544403194
aF9.3010462851045865
aF5.8325462303326248
aF17.203305502256363
aF4.9754305201664408
aF6.2036461283426121
aF11.862973839591888
aF8.9154643779592107
aF9.0927791948990659
aF21.152568114339587
aF17.215412230349578
aF18.896659800464818
aF4.989132049058675
aF9.4665851762160855
aF4.5636044733199128
aF4.0364411828886722
aF8.2425871156193296
aF12.52350325216576
aF8.584818040755124
aF5.4388635148710591
aF38.632227123764594
aF69.827090928263885
aF42.865712717768005
aF60.262464893836821
aF65.155545179028621
aF4.2599336495161282
aF4.4938460630718708
aF6.9748889898915571
aF4.8820794001902925
aF5.796587367850961
aF12.201895510227878
aF32.602952842979519
aF8.0188586640177562
aF5.0561188894596683
aF7.3924471536703606
aF6.3442182170802823
aF6.1805106654055351
aF7.2542876233247142
aF13.185198986905164
aF5.6128446997670522
aF4.6365603227930166
aF14.972853228100742
aF5.6889074901505676
aF21.888255951678886
aF4.8820794001902925
aF4.2402530785445407
aF4.465743851544854
aF7.7992682633079511
aF5.4388635148710591
aF11.70914836660662
aa(lp10
F4.1941184645214378
aF85.944999215676987
aF8.456065447451877
aF11.268565252445697
aF5.9470153947175177
aF4.0455533399263075
aF11.700440542256814
aF5.6622113453757379
aF12.201729209296886
aF13.885325764972784
aF8.0845710334710628
aF11.874078939730371
aF4.9522918001870693
aF5.6017972146966368
aF6.7004096161528608
aF5.8850276602492535
aF5.9391330975920944
aF4.2916713833877793
aF7.541929595271057
aF6.640598847943437
aF39.096488765943946
aF34.791159633828926
aF33.458290900914648
aF26.268269390841393
aF4.3161934105462194
aF4.5608255385160703
aF9.2868864649680063
aF8.1187063326772488
aF7.8614766253061248
aF4.3829467469907826
aF8.6012133915427569
aF35.060851241615296
aF33.11519271510862
aF5.7686508084084949
aF17.991576253153099
aF6.5909174992233375
aF20.843787294982747
aF6.7004096161528608
aF20.843787294982747
aF6.0184689186719567
aF4.8828427047678247
aF7.2140264237755076
aF13.427654481941616
aF7.4131117902506638
aF5.0683093198664579
aF5.1270204805426971
aF4.3829467469907826
aF9.1905427717132682
aF108.47217516328696
aF7.7484428432829873
aF7.2140264237755076
aF7.4131117902506638
aF112.73328107684415
aF12.165163683804453
aF5.7179245268425376
aF4.5373157525893859
aF5.0810262557677817
aF8.0887304100743762
aF24.368028993810583
aF4.964145792239222
aF9.5914660177182753
aF25.468411486709563
aF7.4633953938857331
aF12.032022887173664
aF7.0586229104136464
aF7.0586229104136464
aF5.2442486236219956
aF7.0586229104136464
aF4.4995342800619511
aF19.866215145786366
aF15.498267305517501
aF4.3550637711314266
aF4.744459719693964
aF11.986876440269242
aF10.181037562804249
aF7.0686076609472366
aF6.2483562484308663
aF7.7682175841358116
aF7.7962994264460121
aF5.6011411201728833
aF6.980890475884415
aF6.980890475884415
aF50.507951764066448
aF14.679177605334885
aF8.4815608536439271
aF33.504016052997656
aF40.645290367282144
aF5.2878030685493513
aF4.5512996802545445
aF9.2524584254552451
aF7.7030855901857294
aF6.3568493985476664
aF7.3766177640435693
aF9.1092889808335542
aF7.0686076609472366
aF4.6966024935302073
aF10.327789953189203
aF23.680711303418477
aF7.732892742425193
aF5.5811794640778203
aF12.346347208855988
aF4.706349002725517
aF5.1173261119263884
aF9.000384905227591
aF7.5192859211236538
aF9.6799532347789636
aF4.9765488178087196
aF4.4927427761900276
aF4.4577581287096262
aF8.501715507938556
aF11.138056742172795
aF4.7547001318944524
aF6.1283542469684669
aF7.4661482267674693
aF6.8043077732404811
aF5.4075950642752755
aF9.8078577161824967
aF4.6632497281215564
aF13.150420573178735
aF9.6012822623232523
aF5.5135421673796827
aF7.7857001382677566
aF4.1036615827558043
aF42.915597720076626
aF7.8382027083944479
aF6.1022757936014855
aF4.2422935048261934
aF4.0783551515540228
aF6.8194022749070413
aF4.0272559365250871
aF14.257588736241161
aF8.2127077000340165
aF7.3319160279523601
aF55.101252516734618
aF45.952487720577295
aF10.097683792745173
aF19.748251066822647
aF4.1857828626146869
aF6.1448545296995718
aF7.0848152651742282
aF10.89334459524359
aF10.49784840393195
aF62.698631751702294
aF41.954925238510754
aF17.763413308831428
aF8.7924648326802526
aF6.0454627784924284
aF4.5120447544262845
aF5.052979277245278
aF14.918994411671116
aF15.013716667913293
aF5.3761805410943717
aF6.0244545139747032
aF13.472610143063811
aF5.9966188700687439
aF41.402694353357262
aF4.528070561675321
aF4.528070561675321
aF11.769155805890918
aF19.46149931369672
aF16.17502825718023
aF6.3152340784141572
aF7.7882692252529679
aF5.6217745319513739
aF4.3904458338833052
aF4.7623773029637135
aF48.21849959062142
aF7.785020763146278
aF5.9734512169628786
aF4.2259814135362603
aF7.0098703109799487
aF10.195844646910919
aF4.2270310715400328
aF5.0724181138712368
aF9.7117456830990818
aF8.5820984320792206
aF4.2786884593765535
aF4.2786884593765535
aF4.442728422187745
aF4.8597096044336467
aF4.4748706579342681
aF13.501203161177664
aF56.642023930016919
aF4.8515355143086083
aF5.0637253210733491
aF4.8213906323927347
aF14.977672719270025
aF72.824312543207739
aF6.2152103544958095
aF10.318132158763348
aF8.5533379904546312
aF7.7723614541500865
aF6.8222789855902022
aF6.888960316812728
aF8.3183491511326295
aF7.182045149710234
aF8.8521277474999422
aF11.198948445577344
aF5.5024639328434048
aF11.098247210381954
aF17.439958800494281
aF4.3593047492761059
aF9.0324569451590264
aF14.192765056191254
aF13.690117001882498
aF15.990189926785106
aF4.8658151059530184
aF7.6327091786138261
aF6.3451708575103538
aF6.0244545139747032
aF9.8206693103775091
aF6.0244545139747032
aF4.7262114548861813
aF6.0448329217468029
aF4.0338445766521573
aF13.722004088976345
aF14.353642901154316
aF4.2795752202322603
aF6.0244545139747032
aF9.8206693103775091
aF6.0244545139747032
aF6.9684211998099634
aF11.113664424067782
aF4.3776408381454779
aF5.5303129037774568
aF9.0927791948990659
aF35.88554377666874
aF17.215412230349578
aF18.896659800464818
aF8.7747319797805758
aF5.2605469923408918
aF22.246400271518105
aF9.9912494893144981
aF8.2861297983354945
aF15.400260374693374
aF5.0293665076600576
aF6.4970571710669418
aF10.101978837069353
aF4.094923802529749
aF6.8342847813357253
aF11.048716652145373
aF5.3096168034207807
aF5.7382892696459935
aF6.7969017287641833
aF6.7893737250793755
aF4.9446865068181118
aF4.8590863537280882
aF13.399813666808626
aF17.282027523749321
aF5.9669493750747762
aF14.213503839020561
aF6.9380835566792882
aa(lp11
F14.267967729712012
aF5.6028212122666581
aF10.900026432234668
aF6.6553395024473359
aF6.7159884396825262
aF7.2936131473572345
aF13.739276825921459
aF64.934840021012789
aF10.373745238942973
aF8.8335128666376264
aF7.9971980432037242
aF35.307588365038285
aF6.5537985155744565
aF5.8431256620998653
aF4.2823157666199734
aF4.0860662800617966
aF8.8326249775875993
aF18.044363993482975
aF12.811925233157428
aF7.4985935810938145
aF15.070694071969053
aF8.1798526284283781
aF4.4280652711658206
aF28.321014409716454
aF5.0842996395864439
aF5.7508497951422584
aF5.7508497951422584
aF4.7326581884066599
aF5.0469763864547303
aF5.1485186274660535
aF4.8828427047678247
aF5.1131951645774336
aF7.136260335882131
aF19.305276291735083
aF4.9982852861020817
aF21.093485551913993
aF10.69999630863542
aF6.5440447781168132
aF6.5440447781168132
aF9.3510596690719296
aF11.527897992656463
aF5.5116133968200671
aF5.4561596930745981
aF4.5024744787242597
aF5.2209519124470205
aF31.24526975138798
aF4.2314829274738512
aF10.999158153923645
aF5.8780862150839077
aF5.8780862150839077
aF13.596656766794851
aF14.732458554010933
aF4.8165327453183053
aF10.47244793136505
aF7.4386938046390583
aF34.515674189943631
aF4.6582873930709781
aF7.4131117902506638
aF8.4815608536439271
aF7.8978617544345013
aF5.0492334613632437
aF26.663866126229436
aF7.0722542877967385
aF21.126684667036528
aF7.9747388584052743
aF7.7682175841358116
aF17.390151669032804
aF4.2643526245158014
aF8.0752955440006531
aF6.4291697008921709
aF5.4419680338349536
aF8.0909412311346713
aF6.7590177833801377
aF23.473975953395339
aF26.266350121958581
aF4.2314757981511271
aF12.316057730842033
aF14.085930948080161
aF10.219626316069919
aF43.556957491912165
aF20.010583266184199
aF7.2546899136150742
aF6.3592033596711843
aF7.4278736536801553
aF11.561472088641196
aF4.7351601326618891
aF4.5565578818129495
aF8.3695219582900648
aF5.8420570173615829
aF7.4661482267674693
aF23.875378746392414
aF4.9348202534059968
aF4.6450397444671268
aF8.5677558999864409
aF5.2840693368559215
aF5.8925236537027672
aF5.1045788309785749
aF15.145339655977907
aF7.1495104635493778
aF70.020741768230863
aF6.5227368929480605
aF5.333141450740726
aF17.763413308831428
aF8.6902715479666313
aF6.9213249001184529
aF7.751769119800457
aF6.0267662372675943
aF9.3146784543276056
aF6.813717169019526
aF5.7210803846704721
aF52.733557986024479
aF9.8542159307746573
aF5.7132260868105931
aF5.4075950642752755
aF16.123603786690239
aF4.502636812278638
aF7.6545885132073437
aF4.7916429517933778
aF4.1199751016233961
aF4.1406038307260076
aF6.7929667331908661
aF8.3768297545693144
aF7.924942064700474
aF4.597272206604373
aF4.1619316530724646
aF30.888667210608091
aF49.069644255560817
aF5.4172911497571619
aF8.1944202439745197
aF5.6663929521532879
aF4.6730662991319321
aF4.9857364902395034
aF6.6522720653741683
aF11.363216169270018
aF24.209408543658917
aF6.4277028022705593
aF4.8288565773631831
aF4.9617061314077091
aF6.8309174679852589
aF4.6524757889195669
aF5.4701694510784478
aF20.776261609765324
aF57.778809537933974
aF28.695598520240253
aF9.0430038078253805
aF7.2730085853401736
aF8.0209259725985085
aF4.0687371935418781
aF4.5826369003641076
aF5.4446984357306007
aF5.1951157095453908
aF19.136898132373521
aF6.6199284881361393
aF4.0331989966731783
aF10.494486842925532
aF5.1486708975857525
aF4.6461156981418839
aF6.8280581666232933
aF4.5469379946083848
aF5.0171705050183846
aF13.626833369259714
aF5.0742103113804546
aF5.9127160713847999
aF5.2203528978047871
aF6.888960316812728
aF7.7723614541500865
aF4.2270310715400328
aF14.977672719270025
aF65.353001258443101
aF19.108873473710332
aF6.2990875693945725
aF20.776261609765324
aF37.338914523310869
aF14.118296335134261
aF15.990189926785106
aF4.7066006008464143
aF4.7262114548861813
aF4.4088849447236953
aF6.8384636353868746
aF14.749944733237637
aF8.1302322428303597
aF4.7386988895377584
aF6.3015603260671611
aF9.6661303303139192
aF5.7428866570468244
aF5.2381350360927001
aF25.586602628141797
aF4.7191074631118095
aF5.7616951206838536
aF6.0699744887323561
aF9.0411455118360777
aF22.066153147417992
aF6.3104720168467026
aF11.121037368976616
aF10.568567553035681
aF4.2158046332835397
aF32.005995859588353
aF10.075060138931605
aF63.163548792697121
aF42.74317341079076
aF7.9322206725754114
aF8.5458276447247243
aF6.4362427842246746
aF7.8039131893380898
aF8.1373236201505321
aF14.637889209271151
aF4.0769387603559153
aF5.1961394927842406
aF10.836492328494444
aF8.5682570834882483
aF14.59302980072977
aF7.766722228355845
aF4.266509374230111
aF14.864880866114291
aF10.647408773967825
aF17.928266893570928
aF5.4726370122411652
aF11.435757600580544
aF4.3097683172161823
aF4.7468408198192122
aF27.296916512130636
aF6.7268328607548682
aF12.065352165521823
aF66.860386587077159
aF5.512112685788999
aF10.099531367509176
aF28.494347326104734
aF21.415580534400462
aF4.465743851544854
aF5.4298812195733888
aF6.4807605839112057
aa(lp12
F22.397416940154059
aF6.7390442808278337
aF7.8273294516054897
aF31.162406316186562
aF5.8440620610989047
aF21.72413569786525
aF6.5090353554467129
aF4.4743854020327944
aF6.4890982933238845
aF9.1320870876530194
aF13.198045603842957
aF7.2989907906605112
aF16.541443892408097
aF16.541443892408097
aF8.9783480201912482
aF4.5299511029639206
aF4.292987665984052
aF5.7878211565625861
aF20.043450383742357
aF8.6387158768462484
aF6.1229524939758875
aF7.9031152374535303
aF13.885325764972784
aF5.2946818475112813
aF9.713056800780187
aF17.991576253153099
aF5.0188492992309728
aF4.4314692176186767
aF7.3479339277917148
aF33.768261132742808
aF15.258454151259537
aF67.695283474256158
aF19.803504701356577
aF24.401621600957355
aF4.0572040107472418
aF7.3457771180723341
aF5.1485186274660535
aF11.965113027685426
aF5.6419180396880222
aF6.5280174040768912
aF4.3829467469907826
aF4.3829467469907826
aF4.3829467469907826
aF5.6358824544986845
aF5.7160736442097928
aF18.237889151473269
aF6.3907011522680932
aF11.67943883803818
aF4.2845338227430716
aF4.2845338227430716
aF4.2926332559175933
aF12.255691420009384
aF8.6232088557716935
aF4.8165011869450893
aF4.9350532918087424
aF6.1934081566779184
aF4.1357111437429239
aF5.1485186274660535
aF14.698083754973297
aF9.6350364083938871
aF4.5608255385160703
aF30.075830771360785
aF4.1977652182643226
aF10.151623530042821
aF59.639219289450253
aF7.3582971370633175
aF4.9982852861020817
aF10.63196425535736
aF10.832747474417914
aF6.9074253190481443
aF56.893271855805111
aF11.893618128341764
aF11.230285491513939
aF8.6012133915427569
aF22.273287654782109
aF6.0535783569915225
aF4.9579266602061125
aF9.6188528848615249
aF14.826077275232151
aF4.4402819478249427
aF5.1131951645774336
aF6.9012377747509959
aF5.0357451742434094
aF6.3179566360912816
aF6.1805273344050988
aF42.956439535620866
aF4.7767219891061927
aF8.9736701105809757
aF8.0752955440006531
aF10.83112827215777
aF9.777747389888944
aF10.484382846850352
aF10.077628872297872
aF12.100531916348054
aF13.214964521940768
aF10.621909052505941
aF5.3301148348354452
aF5.1552822699862553
aF7.1026907808309403
aF13.596656766794851
aF12.884130417990264
aF11.814318658133885
aF17.768948438610835
aF7.4557876921013531
aF7.4633953938857331
aF8.6354176202038104
aF4.8165327453183053
aF10.422952591591383
aF8.1983417204610305
aF4.4560540471935051
aF12.032022887173664
aF5.2878030685493513
aF4.4054178444231633
aF6.5686593586377171
aF5.7179245268425376
aF9.1511799132495923
aF4.2632259913245836
aF4.3586847040877359
aF6.2407020853518809
aF11.606497657338522
aF5.6686495195782527
aF7.9299448253896969
aF20.792023118135702
aF11.428623608751977
aF9.1092889808335542
aF4.3998569405184718
aF7.144819399761559
aF10.181037562804249
aF8.7636154040785641
aF5.1131951645774336
aF8.0971916556534893
aF40.645290367282144
aF4.5502592888314268
aF5.1433845477676243
aF8.319561350207664
aF5.6011411201728833
aF10.999158153923645
aF55.149559015423279
aF12.242227090866379
aF7.0586229104136464
aF5.1576092329662515
aF11.543439380183564
aF5.5811794640778203
aF4.8760341329809478
aF4.4705938475522444
aF8.2305190101904344
aF4.3586847040877359
aF24.533414924011737
aF5.4977183556816414
aF15.769426640381923
aF12.769204441138768
aF34.443909602768969
aF7.4386938046390583
aF12.316057730842033
aF17.55831701043499
aF21.972877310397095
aF9.8366506285957911
aF8.0746178845151917
aF9.8366506285957911
aF4.2917728671142825
aF7.2546899136150742
aF35.746038889732048
aF5.5811794640778203
aF7.3033473566870164
aF8.8268595761946429
aF12.929349677683753
aF8.6471066314836662
aF4.2015979101524321
aF14.039234236634115
aF4.0173162225507326
aF7.2538862047199331
aF8.6575829947667202
aF6.8043077732404811
aF14.489991633074652
aF5.9765808675718688
aF4.1468850121589256
aF6.0280465252522362
aF4.5322601101727678
aF21.213337302564163
aF7.9541927665584637
aF4.4927427761900276
aF6.8700639303250171
aF6.8700639303250171
aF7.2546899136150742
aF4.8222591459915023
aF4.1450597975406254
aF6.4291697008921709
aF6.1856651367879465
aF4.4026895168941849
aF11.282471105347213
aF26.91264845627218
aF7.4661482267674693
aF5.1187040083405293
aF4.1588501557861264
aF5.8508384205962756
aF10.253459059613562
aF4.1593190959305844
aF25.839278410412888
aF4.9765488178087196
aF4.7475389053661381
aF4.6730662991319321
aF4.9857364902395034
aF5.4715708765185411
aF5.0219713851341794
aF7.9259408370886764
aF10.449781579589342
aF16.415391040560706
aF20.889818593659321
aF4.7337900341179413
aF17.587842992212757
aF7.6618659927090249
aF5.7091949067229706
aF5.7029927892787136
aF8.1614033168620779
aF17.763413308831428
aF4.0399658266759815
aF4.5763464326812482
aF5.3981814875669158
aF11.209779440757146
aF9.227360509327923
aF16.895542510766902
aF14.633099231027046
aF10.046284658174272
aF5.6217745319513739
aF46.805635374214525
aF13.476418456343069
aF6.143214374586762
aF4.8626008286780937
aF5.7695460744739115
aF8.2740784273353114
aF4.6277681732071567
aF10.134379067302348
aF17.763413308831428
aF19.143897883267755
aF7.3319160279523601
aF5.052477729421966
aF16.896950327473576
aF16.896950327473576
aF7.6837687465147226
aF7.6837687465147226
aF9.9144564882274011
aF5.0624012683289834
aF6.6881113623595212
aF4.2647988333864362
aF16.415391040560706
aF20.912055592709493
aF5.2779595930293546
aF6.8138244127145384
aF12.500624513387997
aF11.809258545124905
aF13.431505237645993
aF4.9399546199792397
aF16.342918394072598
aF5.6781500366027728
aF4.4932020974408431
aF10.228757496064802
aF6.1616746851084372
aF5.6625110821487681
aF4.8597096044336467
aF4.3122791292008316
aF4.488713890990649
aF8.2749735873146548
aF6.0244545139747032
aF5.4207471135957164
aF4.4578373733095447
aF9.3717312075410799
aF5.9734512169628786
aF10.884133961460691
aF10.085809422033293
aF4.6963701276173708
aF10.756767034708474
aF8.1674660451340024
aF5.8672173159556849
aF41.954925238510754
aF10.134379067302348
aF12.166097893814166
aF10.324777931137795
aF9.0031004854905774
aF14.982440020117892
aF16.113977817347308
aF10.76277698108526
aF69.815356814318591
aF5.9665512908301412
aF37.824867818384433
aF8.8503261075134638
aF4.6737634112426107
aF19.70702561041881
aF5.6676856843165808
aF19.70702561041881
aF4.8597096044336467
aF8.1531356553831813
aF5.4602547721891881
aF4.173595433764504
aF7.4922525104829472
aF4.91373571915139
aF51.456779749243196
aF7.3565816812392768
aF4.1021174377244876
aF19.62418811954862
aF4.2710981539074471
aF9.1963350603405338
aF5.9127160713847999
aF4.528070561675321
aF4.0581496299639355
aF4.7979666069987275
aF7.7723614541500865
aF5.0907718334477039
aF5.2779595930293546
aF5.8672173159556849
aF11.164124970068997
aF4.213352684270653
aF10.195844646910919
aF10.36829956361375
aF20.732175301862242
aF19.031447954677244
aF10.350372027436853
aF8.5820984320792206
aF5.4450729396184272
aF4.1503885512561283
aF10.568567553035681
aF12.052200650393431
aF15.990189926785106
aF4.3122791292008316
aF4.0326568721761831
aF4.8068663268116154
aF4.919082128239765
aF5.4446984357306007
aF15.714530591477654
aF49.187669214171095
aF8.4593630350340376
aF22.878279437714653
aF10.413648162873791
aF4.5795096109740712
aF4.6395405978196926
aF6.8222789855902022
aF4.2710981539074471
aF4.2710981539074471
aF21.106755952578148
aF13.954220944334793
aF5.682807044108328
aF18.593378327280675
aF4.6683451640716918
aF4.2032851396663347
aF6.8734088534405462
aF5.4450729396184272
aF5.5714279345936255
aF4.6628652944782374
aF8.9728745425074976
aF9.27122015926453
aF6.3302409175077976
aF9.7057315428703959
aF17.530236657257788
aF6.7074322319467399
aF16.591600559190567
aF6.7074322319467399
aF6.7074322319467399
aF8.5098466728574635
aF4.1960786364379743
aF9.3275338821661862
aF4.2082486955167866
aF5.3565843419558732
aF5.2381350360927001
aF10.568567553035681
aF5.1362068349743595
aF10.092202092876533
aF7.2123144623315234
aF17.747455663012957
aF7.2723827255992148
aF4.2795752202322603
aF32.624609121227422
aF5.2266268273894028
aF5.8541820359451791
aF9.9698851757686242
aF4.9450899372972401
aF7.4893297498551306
aF5.4663988233226632
aF8.5756113249425585
aF4.1352896119978908
aF4.0314685496866467
aF25.586602628141797
aF6.5667887742014557
aF4.7011383133744005
aF4.2049841890459128
aF9.1673084320395333
aF9.301756103197576
aF7.2739645797132368
aF4.6737826187740836
aF4.5341575048270215
aF5.5720471152068569
aF10.367839292189046
aF4.3097683172161823
aF9.1459276518708066
aF4.4710431728007407
aF8.0656843422717301
aF4.3667861357069029
aF7.1933237509834953
aF5.6128446997670522
aF6.3696259051682205
aF12.756220222454823
aF14.972853228100742
aF7.2427211582388722
aF4.2402530785445407
aF17.48848826526568
aF53.222347073370088
aF7.9513978146409983
aF9.6645096946278954
aF11.927518860054334
aF10.487345300780447
aF12.231840207695754
aF7.2486394270663652
aF5.4388635148710591
aF5.0561188894596683
aF25.791636813255913
aa(lp13
F5.4682678705112693
aF24.857314658165485
aF4.1967768646413948
aF5.1939307553696494
aF5.2674235726457539
aF4.5099351187870411
aF9.7969446329117318
aF5.0147937420843967
aF21.093485551913993
aF5.7878211565625861
aF10.750723061992701
aF5.1179359870010614
aF16.665429795988501
aF6.1229524939758875
aF13.684585189398021
aF16.229208360662341
aF8.2210287819969228
aF21.901887425615769
aF19.730556359071514
aF40.666804418409669
aF4.1491095325586631
aF18.779570853681321
aF10.402319526184613
aF4.8975552559915059
aF4.5608255385160703
aF12.130114040545578
aF13.427654481941616
aF19.054771094156891
aF10.832747474417914
aF26.534985466688951
aF6.4291697008921709
aF4.455343298166369
aF19.133199257551546
aF7.3089501653304936
aF6.0184689186719567
aF4.619555004805239
aF6.9012377747509959
aF10.999158153923645
aF4.2087457957615158
aF8.7531692827836025
aF12.151161022771525
aF10.55058873562858
aF11.709036654173389
aF7.1841800014775004
aF10.921048087239866
aF11.814318658133885
aF10.40369506622973
aF7.2140264237755076
aF4.4560540471935051
aF72.864138895279638
aF10.484382846850352
aF4.3586847040877359
aF4.2029426389543545
aF12.024257015286867
aF29.641330825910764
aF5.0407740763675264
aF15.712804345064157
aF8.8606688225130767
aF6.1805273344050988
aF10.303961576725129
aF4.0761501615923699
aF8.4714071151918233
aF8.3380941276965785
aF12.606283896634594
aF5.1576092329662515
aF11.430949521114542
aF4.4705938475522444
aF5.7008364498940161
aF8.0973930576981274
aF7.4633953938857331
aF15.769426640381923
aF8.7526673029382778
aF5.8774106932291232
aF34.443909602768969
aF11.155767834725854
aF5.2878030685493513
aF7.732892742425193
aF20.774390053693672
aF10.828688446899164
aF5.5811794640778203
aF4.8760341329809478
aF11.308292811766506
aF6.0280465252522362
aF18.086541195175258
aF7.5085536874223493
aF17.308479037088702
aF4.2739851725224298
aF8.1479919024254137
aF6.2793754577745347
aF5.7849766959767948
aF12.929349677683753
aF11.875569999728086
aF4.4534486515273102
aF5.1592200843700091
aF14.779116285993538
aF7.5386837337632073
aF59.338260544362022
aF5.0312174668620671
aF7.6006397137481372
aF5.5811794640778203
aF15.359970143657087
aF8.4148487630514808
aF5.7029927892787136
aF8.8032544650042155
aF21.181486044655855
aF13.166532518110415
aF4.1396233851445743
aF4.9702738258083752
aF4.1111883509603757
aF6.4048061460497081
aF4.7283012053491831
aF4.832869317062972
aF7.2700734720344107
aF35.215376682924934
aF19.418421075727224
aF6.5227368929480605
aF6.1528789833176916
aF4.8626008286780937
aF4.0128815227039354
aF5.4172911497571619
aF16.896950327473576
aF4.4463860105065596
aF4.0413818507994437
aF7.6746442190462396
aF5.0367648506652749
aF19.894161645059192
aF10.155653022299113
aF9.8964833695954422
aF10.489531967715365
aF16.856515534954823
aF7.1616368071540819
aF5.1951157095453908
aF7.7665783516050837
aF5.0367648506652749
aF5.0302612016380683
aF4.0413818507994437
aF9.3171868526906536
aF6.3104720168467026
aF4.2660517948687584
aF4.2270310715400328
aF5.2227769670688531
aF89.470807044121344
aF14.118296335134261
aF20.482709640361719
aF5.3981814875669158
aF4.0772244353308196
aF7.7749079027003676
aF44.311038350148273
aF4.8813118942404685
aF5.5580564739992457
aF4.7145580558084816
aF26.76409929688905
aF12.516102868793041
aF7.0098703109799487
aF12.585096445381055
aF11.198948445577344
aF11.277884067118208
aF6.3015603260671611
aF8.8379325301726936
aF4.3776408381454779
aF7.7723614541500865
aF7.8206813057103801
aF16.157105361155587
aF7.9322206725754114
aF6.9197438474935353
aF4.7262114548861813
aF8.3182065115837105
aF6.7972108734788605
aF12.840908738053791
aF4.1986789812125167
aF5.1362068349743595
aF8.3926058249015512
aF4.8658151059530184
aF4.8686429750455744
aF5.8121963156654601
aF4.2795752202322603
aF5.5352535175822624
aF5.423920878433762
aF6.7822961569534783
aF13.392086292263826
aF17.191971682106484
aF24.690024484442759
aF4.6223635274770345
aF7.5251297070334573
aF4.8590863537280882
aF20.011432340812874
aF5.3735498958459402
aF10.510996107070611
aF8.4913706443636983
aF6.4362427842246746
aF10.450046686279109
aF11.338524234369856
aF4.9412047359442397
aF5.4388635148710591
aF7.9618565907163514
aF7.3924471536703606
aF5.4388635148710591
aa(lp14
F4.1627350062745911
aF6.5340502792232513
aF4.5280582583517202
aF5.6209263248486394
aF6.7164401610158961
aF4.808552374574333
aF6.2703474577264444
aF6.8166950126832973
aF7.2936131473572345
aF5.89016872238264
aF6.0303607823357481
aF8.9345884099685335
aF53.54009521471928
aF32.063485727039591
aF68.808511324090802
aF16.417930063377479
aF41.311677207245253
aF7.7671086859838283
aF6.5280174040768912
aF6.9074253190481443
aF5.1270204805426971
aF5.2946818475112813
aF4.4743854020327944
aF47.111847661037515
aF5.9711956126734727
aF6.6463783974705741
aF6.0184689186719567
aF4.4402819478249427
aF16.335786398742648
aF7.2140264237755076
aF4.5082350967120846
aF8.9736701105809757
aF9.3851537819817139
aF28.300123524518185
aF6.3179566360912816
aF4.6691818809941594
aF4.9125940720586811
aF6.678094519705013
aF5.1552822699862553
aF4.799667657112721
aF8.8034419930431511
aF7.4386938046390583
aF4.1006128614627926
aF4.511701628514075
aF12.032022887173664
aF22.807844527470081
aF4.4995342800619511
aF5.9478530193016894
aF6.3465527667563109
aF5.5811794640778203
aF9.9726431138902143
aF5.1131951645774336
aF6.1934081566779184
aF15.577078353480095
aF9.2044608914518165
aF4.0821711450904523
aF43.268179611450492
aF7.6329326114626355
aF12.606283896634594
aF11.027070596330653
aF24.877014217703376
aF6.9341569736299817
aF28.76698089306916
aF4.3741153659107681
aF6.3179566360912816
aF5.81704044753414
aF5.2477884596409012
aF8.2147054095184444
aF5.7132260868105931
aF8.7636154040785641
aF13.315004992481164
aF7.567066802111122
aF8.6912702120714069
aF6.0204516328995243
aF9.4736628815294424
aF8.1784093494060102
aF5.2840693368559215
aF4.3550637711314266
aF10.641110739219666
aF4.945612960725299
aF9.1092889808335542
aF5.5045025678797188
aF7.8526820806118707
aF11.115602684413076
aF6.8184181805895321
aF4.8173696788358171
aF6.0267662372675943
aF5.2164238744651215
aF7.3319160279523601
aF6.8066969299077442
aF7.7767862900315237
aF9.0408842158901308
aF38.803342755397708
aF25.931889699093865
aF11.809258545124905
aF6.4724636105575861
aF10.772283174060837
aF5.7091949067229706
aF6.8043077732404811
aF8.6861744850955418
aF4.6737634112426107
aF10.630539424330355
aF21.827513223904671
aF17.941171757507391
aF34.766035132143017
aF4.945612960725299
aF39.526486123584803
aF7.1066118686231334
aF7.5385168371059308
aF4.4932020974408431
aF4.2786884593765535
aF15.007887398966986
aF5.3981814875669158
aF8.5677558999864409
aF5.7228964931271378
aF6.3697997395846073
aF4.7578211471267053
aF7.510677377125468
aF20.73420097591525
aF80.054652837642465
aF12.585096445381055
aF5.9166879676839272
aF4.502636812278638
aF11.381411920987318
aF5.2214642257643362
aF7.8707272282093328
aF5.4037871859824165
aF4.0386768651774005
aF4.1089172090802393
aF13.501203161177664
aF32.760409465199459
aF5.2227769670688531
aF7.6782379409926733
aF4.2991410720945007
aF4.4120789951546113
aF4.4088849447236953
aF6.0244545139747032
aF5.4207471135957164
aF4.4578373733095447
aF5.9966188700687439
aF5.4028643461807349
aF5.548986686380367
aF4.915847466863994
aF12.599347088295803
aF8.2936431655782883
aF6.142404359413435
aF25.788498209423626
aF9.9520715392287258
aF6.6681847266308836
aF16.485411997764075
aF4.6461156981418839
aF10.248602063307359
aF12.060779069347689
aF14.625519813345178
aF6.0244545139747032
aF5.4207471135957164
aF6.886122000471147
aF4.1384923798749256
aF4.1089172090802393
aF5.7124639769147763
aF4.7011383133744005
aF5.2221067019814278
aF22.48816770554491
aF4.9102581483371353
aF8.1306736820985392
aF8.1169264310396869
aF5.3796020758729526
aF5.8325462303326248
aF4.1388830950268982
aF6.8898972270716854
aF4.7946011392946133
aF4.6053439121939306
aF5.3962518720727601
aF12.622119265399647
aF24.652865280529426
aa(lp15
F12.613878871481795
aF10.339532011514915
aF12.224374470884584
aF4.3481698653320073
aF17.122433469285848
aF6.1804005330381386
aF13.885325764972784
aF9.4011548313699844
aF27.322694982672012
aF4.0820907139518567
aF4.6567159757591696
aF4.2916713833877793
aF4.3161934105462194
aF5.1485186274660535
aF7.5180397881788537
aF6.8075738191873256
aF7.4350800827835712
aF14.329417684158514
aF10.768596880190273
aF8.1798526284283781
aF14.755963012374636
aF4.7165942778075003
aF12.253227982838801
aF5.0826851855174766
aF6.1934081566779184
aF5.9365866054022476
aF37.693135018062122
aF16.943782775661461
aF4.5082350967120846
aF19.465470716801235
aF5.2733484657438439
aF10.045505464417417
aF4.6201400639020136
aF4.4443316049838808
aF4.3938914666881104
aF4.0580245421960868
aF4.3741153659107681
aF5.1131951645774336
aF4.8165011869450893
aF4.7767219891061927
aF18.970817710916776
aF5.826647912208017
aF6.2167635980300986
aF12.151161022771525
aF5.8780862150839077
aF5.0895833748601431
aF14.826077275232151
aF9.1092889808335542
aF14.34186603150701
aF7.4557876921013531
aF4.799667657112721
aF12.032022887173664
aF8.5370434759976632
aF7.0586229104136464
aF5.8948513403329841
aF9.1511799132495923
aF9.6411434650255217
aF5.8780862150839077
aF6.9603423943677996
aF6.9134907381034907
aF27.027712377261444
aF7.6468744532936057
aF56.561467496734132
aF10.844044060445469
aF19.379011775964301
aF11.428623608751977
aF9.1092889808335542
aF8.7636154040785641
aF18.539264914661445
aF9.2044608914518165
aF6.9051224305521259
aF12.316057730842033
aF18.132939574228864
aF4.6582873930709781
aF8.0752955440006531
aF4.4054178444231633
aF7.6928140324062753
aF6.3465527667563109
aF5.5811794640778203
aF7.18918554851696
aF22.576947322187046
aF5.7008364498940161
aF4.3586847040877359
aF12.153876888582332
aF37.502457781634519
aF18.709933432530974
aF7.4557876921013531
aF5.2209519124470205
aF7.9541927665584637
aF10.181037562804249
aF5.3271088378114317
aF15.249990329196837
aF17.55831701043499
aF6.1564543193333918
aF6.9441459211875411
aF5.1956362947292973
aF5.7775798717756004
aF8.531743728615151
aF10.990092796956162
aF4.8058052846087378
aF34.416971390009749
aF8.7636154040785641
aF13.315004992481164
aF7.6626248264022827
aF7.6626248264022827
aF17.660382546652027
aF4.4927427761900276
aF8.6154300943953359
aF6.5272889799149709
aF19.418421075727224
aF5.7644626253498359
aF4.0557625708001694
aF4.3682552162368324
aF7.6426368047463598
aF7.9737426503848354
aF4.1984331527484642
aF14.337190718394233
aF4.1857828626146869
aF11.980866483483268
aF10.362894093912018
aF4.5450826998211653
aF13.296289360810135
aF8.5677558999864409
aF11.759599265012668
aF10.48558551383654
aF5.7210803846704721
aF19.761963328299498
aF5.3594482665992373
aF5.820331715468825
aF4.03275337355511
aF22.759598884552439
aF4.9617061314077091
aF4.1225294685041547
aF4.7011501131383824
aF4.0128815227039354
aF8.2127077000340165
aF7.4108002524232575
aF17.336141620604252
aF4.3522316307435887
aF10.055814433606194
aF4.0383639322754323
aF4.3241361938458951
aF4.5818886919473201
aF4.4462371839063053
aF13.667079142522482
aF6.7869786677420336
aF5.0367648506652749
aF14.821258014188244
aF15.720791965134055
aF18.898663138824361
aF25.705912756374403
aF37.823823488857556
aF8.8506609356256583
aF8.0517991515169598
aF5.1477321160337368
aF6.8066969299077442
aF4.0930049087631319
aF4.0037672307926542
aF18.730673221185313
aF5.9734512169628786
aF4.6514643324665599
aF10.837764085747779
aF39.8042613467656
aF7.1495104635493778
aF5.0130307158497089
aF11.769155805890918
aF8.7016755976705156
aF4.3397586318858306
aF14.406551348612084
aF38.307294830843055
aF6.0890896548717848
aF5.0937936915739925
aF13.308128071973272
aF6.0617973117514055
aF4.5585204093561984
aF8.1944202439745197
aF4.8597096044336467
aF6.364791266058468
aF4.1681323873796501
aF4.7578211471267053
aF7.4887361210154211
aF4.2608478914044667
aF6.2187611131371199
aF7.7665783516050837
aF7.7665783516050837
aF69.945347162357535
aF5.9590773852788033
aF6.5708658132621451
aF4.4667315573487905
aF4.442728422187745
aF7.4408931654927706
aF21.814351242754952
aF6.1630746900560496
aF4.4932020974408431
aF4.9166784168074571
aF7.4922525104829472
aF4.4881799000149982
aF5.9551390739331964
aF4.9685388297998543
aF9.282084487054945
aF20.234298149070398
aF15.875153477688272
aF4.5338586909023775
aF6.3856326345959928
aF4.5521162674128917
aF5.4023189865961072
aF6.8580832931561195
aF10.494486842925532
aF7.7665783516050837
aF6.8342847813357253
aF4.9287302437097438
aF4.8055047833343387
aF5.052477729421966
aF6.6309979732630779
aF12.806936789020629
aF7.6815987326323238
aF6.1558824131665943
aF6.3960701295352038
aF6.841411796665251
aF4.578769123202278
aF4.854848705370614
aF5.6257376469440743
aF4.4748706579342681
aF6.5156775952767987
aF6.1389259324830761
aF4.0087674989547182
aF14.762298545924267
aF12.500624513387997
aF8.8029651904133033
aF107.00458234309632
aF36.168933627884115
aF12.516102868793041
aF4.3856356200537618
aF24.990662349781758
aF4.6683451640716918
aF9.6667844347921061
aF5.7190376337928797
aF5.5024639328434048
aF37.824867818384433
aF6.078602705579442
aF6.0244545139747032
aF6.1231101167815467
aF5.4234710921650704
aF5.6173852843099468
aF7.9201830968723215
aF9.0861196759682326
aF8.6883959610066199
aF21.773950656814208
aF4.6628652944782374
aF34.203867515506687
aF5.1362068349743595
aF8.4424043278891503
aF4.6461156981418839
aF16.851644032592759
aF5.1371060017321781
aF12.82522269710438
aF6.841411796665251
aF8.3573155797742373
aF4.2312691861932663
aF7.9201830968723215
aF22.214018132273281
aF5.4604307235995719
aF10.264523715130284
aF4.1700261183497034
aF5.3565843419558732
aF10.568567553035681
aF8.5252269426255509
aF8.9154643779592107
aF7.4072736260939251
aF7.5192477768448782
aF16.157105361155587
aF7.3203480032366741
aF8.3273498157453218
aF8.0188586640177562
aF5.0561188894596683
aF7.114038556742404
aF5.4388635148710591
aF8.5972663508146141
aF4.438666955049527
aF8.7539246568426776
aF5.6058425820759794
aF7.9426133414857674
aF8.1566524618005616
aF10.835003161383369
aF4.6365603227930166
aF14.972853228100742
aF4.613235619624021
aF7.3546643321017342
aF8.5682570834882483
aF4.5588445191341975
aF31.900332560350762
aF5.6325780937374503
aF4.4205459613299816
aF8.1513065607143034
aF4.1144414422022777
aF9.5003004576673291
aF9.301756103197576
aF8.2861297983354945
aF4.0045353749351591
aF18.228962119173843
aF4.4560503578246191
aF4.3097683172161823
aa(lp16
F6.2308338971994317
aF4.8625320869370263
aF10.165025941133067
aF8.3202882474669195
aF9.6335699673582127
aF5.8431256620998653
aF14.755963012374636
aF6.6162482082907985
aF4.4249048077823545
aF6.8492251248723974
aF7.7463948689160631
aF9.3947034793487632
aF5.5702362121032536
aF33.80470400340041
aF12.224374470884584
aF4.3481698653320073
aF5.6358824544986845
aF9.713056800780187
aF6.1727593251829376
aF12.255691420009384
aF6.3010421292919858
aF15.1925814627607
aF4.8828427047678247
aF11.780671569672762
aF12.450904791008472
aF7.3900713115760652
aF9.3851537819817139
aF11.015955685774202
aF43.883643425540896
aF4.8571828377575912
aF6.8939966388871028
aF8.0971916556534893
aF5.7698772915661181
aF5.644620604507594
aF5.2239964610152327
aF4.7749018614423875
aF5.826269717427472
aF9.7218419964376039
aF4.9053408094925146
aF8.7531692827836025
aF4.0896056755066468
aF15.081434761659942
aF5.9428268999074092
aF5.147437360982309
aF5.752252950619237
aF5.1552822699862553
aF9.5914660177182753
aF9.7752651492673692
aF11.709036654173389
aF7.1841800014775004
aF10.40369506622973
aF13.627911489991092
aF4.8557970713038898
aF4.511701628514075
aF4.8165327453183053
aF5.673545464667507
aF5.3729427587338137
aF4.8664539234657411
aF5.2878030685493513
aF6.8852160857737754
aF6.5686593586377171
aF7.4131117902506638
aF4.4995342800619511
aF4.6006053184684017
aF13.214964521940768
aF15.91113144059668
aF14.582987003785128
aF4.5417745464108084
aF6.6463783974705741
aF7.0607124781044206
aF4.5565578818129495
aF6.4893065159959633
aF9.8757597415547735
aF5.927615223435069
aF8.1983417204610305
aF5.5180735303613346
aF15.696436644374849
aF23.997152783784571
aF34.589938314081863
aF5.2341394825709529
aF5.1478429035470867
aF5.7958406787358712
aF6.1926000431685111
aF10.300057581509467
aF8.0973930576981274
aF7.4633953938857331
aF9.1092889808335542
aF8.7526673029382778
aF12.073716757029938
aF6.5770181875313085
aF10.555925329616315
aF5.81704044753414
aF5.1217199872776433
aF8.2168825701296839
aF10.482701111671517
aF7.0586229104136464
aF12.316057730842033
aF4.264270293768579
aF5.3831057517896568
aF15.106415595437326
aF6.7266111058078035
aF7.8402394703704346
aF4.6251892461308657
aF14.594334230897715
aF6.5416845661432319
aF11.57626973012141
aF5.1072731686741264
aF10.990828036635829
aF6.0188930247679195
aF4.7966146913949359
aF9.4796815273573287
aF5.411070418306366
aF5.7849766959767948
aF4.7770475958959082
aF4.4884971308023687
aF5.1045788309785749
aF19.86334340976704
aF4.0557625708001694
aF5.9478530193016894
aF8.8268595761946429
aF5.820331715468825
aF10.307471067462345
aF4.1701548633616881
aF8.7985451999785305
aF6.0267662372675943
aF4.9714170734040124
aF5.7849766959767948
aF7.4707928749055696
aF7.3153943768919873
aF5.2388575183354504
aF21.278466494547814
aF4.680146714862758
aF5.7091949067229706
aF4.9489808204385497
aF5.1320581001653807
aF4.2422935048261934
aF10.390871959767651
aF14.963789320440441
aF6.6567320913225387
aF25.931889699093865
aF4.0272559365250871
aF4.3310326270489483
aF5.1385328581559975
aF41.482235533223587
aF15.113013161586828
aF4.0930049087631319
aF10.048026079525016
aF5.8109835565195169
aF7.2159961806918034
aF6.3492062324402383
aF6.8280581666232933
aF11.752441838100758
aF8.7426110973949136
aF8.0916502895939928
aF9.436193010010804
aF7.5385168371059308
aF6.1616746851084372
aF6.2886131165661538
aF6.364791266058468
aF4.488713890990649
aF5.7477035558859093
aF34.22411494468065
aF9.4294889046164556
aF4.9647416192373583
aF9.4581337593318722
aF7.3475047555715882
aF5.3195606141620075
aF4.5251545801038162
aF7.6142511008419547
aF7.510677377125468
aF5.2388575183354504
aF9.5018797670063577
aF9.7012933761344797
aF4.6932959187560819
aF38.026506742743265
aF12.624769806388642
aF5.4343557880680251
aF15.197557513940353
aF5.1456769749032247
aF4.9166784168074571
aF6.7018799687858319
aF4.7283012053491831
aF21.534131805905197
aF8.0623167168504573
aF5.6173852843099468
aF5.0395274259385658
aF11.477667662725878
aF15.575710524387731
aF17.555026663527542
aF5.4028643461807349
aF4.4265973211990968
aF8.5210168147007934
aF4.528070561675321
aF6.1161726919528547
aF7.7723614541500865
aF4.4364572503793909
aF5.4701694510784478
aF8.1674660451340024
aF5.8672173159556849
aF12.412231102597858
aF4.4932020974408431
aF6.7704891511837175
aF5.2075170312452812
aF6.3716420787717709
aF4.2991410720945007
aF4.8813118942404685
aF4.1643873103565259
aF6.827173133578043
aF14.215440650886222
aF6.4277028022705593
aF7.13728723194032
aF5.7367253668057714
aF31.906614887729248
aF10.759372039254117
aF4.1021174377244876
aF23.583494075649455
aF6.8671201226856482
aF6.3503141374439736
aF4.7892710973261217
aF11.198948445577344
aF4.6236170660091886
aF7.5985396922544055
aF4.2786884593765535
aF61.344991002251774
aF5.9659499264764833
aF5.3286657262908701
aF4.4881799000149982
aF5.9551390739331964
aF5.4312126821804441
aF6.0658661923872472
aF4.341321139468107
aF44.666521974242819
aF32.966308084508526
aF5.1922615857489234
aF4.0338445766521573
aF6.0244545139747032
aF5.4207471135957164
aF8.8388781346350811
aF4.1384923798749256
aF10.101978837069353
aF4.1719716019333877
aF6.7264417201965081
aF4.5521162674128917
aF4.9457954402573669
aF5.1866115048706689
aF111.40653662986844
aF7.2123144623315234
aF12.120634883202055
aF9.7905381971894343
aF5.6424544915428214
aF5.1723673000961412
aF9.2300698030820172
aF22.344277212866075
aF4.7759158663436141
aF4.596338233960644
aF10.861906349756993
aF8.103537093301469
aF4.6737826187740836
aF11.130162355966178
aF5.4963089879731939
aF38.191908739313547
aF5.6800398900294624
aF6.2399021006794797
aF6.3442182170802823
aF6.508946511043078
aF28.074628845573983
aF7.8766728025542818
aF4.6365603227930166
aF32.624609121227422
aF5.2266268273894028
aF6.0244545139747032
aF5.4207471135957164
aF4.8717655026892714
aF8.6883959610066199
aF8.6883959610066199
aF4.3776408381454779
aF15.690320997872249
aF6.8426636682462458
aF28.036804482845604
aF6.5755917645274593
aF9.6547199316825072
aF15.556849191749663
aa(lp17
F7.4824537302681975
aF4.4779954144045746
aF5.6201256526038321
aF5.5518541130527126
aF8.8454273427330818
aF4.9350332786319058
aF4.0739602923198674
aF6.4129000152236486
aF4.9641325275127031
aF4.3165991933857235
aF5.0597438684388152
aF5.9428268999074092
aF8.6092889556198173
aF5.0192195127735317
aF28.300123524518185
aF5.2946818475112813
aF22.955853519282822
aF29.641330825910764
aF6.5325556897066264
aF17.991576253153099
aF8.0032268574442327
aF6.6171218675410444
aF4.1500585265477206
aF6.6553395024473359
aF6.7159884396825262
aF4.8574506300457188
aF5.89016872238264
aF9.5334117457977765
aF5.9154338096685564
aF4.4279868082397087
aF4.7916793227816932
aF9.0295850572300509
aF4.799667657112721
aF8.5475702826435693
aF11.824337342131265
aF6.678094519705013
aF7.0722542877967385
aF10.750723061992701
aF5.2365260653651546
aF6.5909174992233375
aF6.5119190830596665
aF15.785999736496066
aF6.3881610087000666
aF4.2669736665837315
aF5.280611069458752
aF7.897362289555133
aF7.7176662679441748
aF5.4758977426631432
aF16.00954070566587
aF5.1483152808090011
aF14.732458554010933
aF7.2140264237755076
aF12.205069703922931
aF5.4359257353561645
aF4.2632259913245836
aF7.2538862047199331
aF5.089422225352294
aF6.4210856144419139
aF4.5512242381363706
aF11.114125117520643
aF5.1749743108757684
aF5.0895833748601431
aF6.1305566726957181
aF16.861112627193137
aF6.4608272162319729
aF4.3522316307435887
aF4.0168757055893982
aF4.6730662991319321
aF4.9857364902395034
aF5.04115148118197
aF5.3903702011487553
aF32.181998124866325
aF5.280611069458752
aF12.021382872700883
aF5.9799636755142132
aF6.8828968469835843
aF7.1628188721468682
aF15.270182134474503
aF10.436084731236576
aF5.8447734784358305
aF4.1503885512561283
aF8.5425169961963832
aF4.144347825305374
aF4.1111883509603757
aF7.9607536750290961
aF30.652621057945634
aF5.8170189531072722
aF4.7145580558084816
aF6.1856651367879465
aF8.4767616812210207
aF4.4667315573487905
aF10.431915199701194
aF6.3696869993563325
aF5.0312174668620671
aF8.7996853945990576
aF15.81842310532258
aF8.6782307645741739
aF4.5795096109740712
aF5.0907718334477039
aF6.4925775550437947
aF4.213352684270653
aF8.3183491511326295
aF7.7665783516050837
aF9.5522916825689776
aF7.9201830968723215
aF5.3981814875669158
aF8.2960204357787344
aF4.4205929594784159
aF17.535071659780485
aF6.707814033118197
aF4.5397194651501707
aF8.1629228550017778
aF74.371033123985711
aF9.2122077823566855
aF4.2448470438932446
aF6.2826521619253768
aF4.0338445766521573
aF4.9450899372972401
aF5.9387089856485886
aF79.166601637063621
aF4.4512243260463649
aF8.6819412200600681
aF6.7893737250793755
aF5.1922615857489234
aF4.4035036132695424
aF7.5192477768448782
aF5.1191417258572187
aF4.0177252185128651
aF11.865461709963576
aF8.1085020199625433
aF5.8325462303326248
aF6.2961168607905904
aF15.546318967321298
aF8.643231375761097
aF32.31312710316115
aF5.4663988233226632
aF4.5220292629618086
aa(lp18
F5.0918359412339385
aF5.6856795867710019
aF5.7761279578712106
aF21.437970862716398
aF6.6553395024473359
aF8.2109682466475871
aF10.629837843954569
aF14.126652317654269
aF7.5112799574928317
aF7.3900713115760652
aF4.3195449743778767
aF5.3409418993388158
aF6.9763686274119863
aF8.6012133915427569
aF6.6463783974705741
aF6.0184689186719567
aF5.1131951645774336
aF4.8828427047678247
aF5.9365866054022476
aF5.4235541985989641
aF5.8531806109161266
aF6.192586623790433
aF6.2407020853518809
aF12.860743871376705
aF4.0580245421960868
aF6.0184689186719567
aF4.4280652711658206
aF5.3989044763575329
aF6.6553395024473359
aF4.3651029435485498
aF4.1924039715894139
aF5.0608886357806711
aF10.17632449273674
aF6.0229096675536855
aF6.1011322757002731
aF4.4053754860185279
aF18.425717493006147
aF4.0028353838035997
aF4.6201400639020136
aF5.9154338096685564
aF4.4279868082397087
aF9.1092889808335542
aF8.6572005885893617
aF4.799667657112721
aF4.2288396563683222
aF4.6171625363106301
aF18.604807757079747
aF45.909994117396394
aF4.8760341329809478
aF9.1511799132495923
aF5.1552822699862553
aF12.811925233157428
aF14.654025264366968
aF7.2621273548361174
aF10.714669067236059
aF6.2933356198603327
aF5.2878030685493513
aF33.957054432023824
aF13.550352104157461
aF12.316057730842033
aF4.8664539234657411
aF9.6411434650255217
aF5.0683093198664579
aF4.4867814435326352
aF4.8760341329809478
aF6.8521240816448881
aF4.235919598711634
aF10.859024551428305
aF10.859024551428305
aF6.3179566360912816
aF14.698083754973297
aF10.066748383955314
aF12.937728768660058
aF36.177094310314665
aF4.9714170734040124
aF7.3033473566870164
aF6.4291697008921709
aF4.624369645534852
aF5.3643237481917936
aF7.2538862047199331
aF7.7767862900315237
aF7.7424152860937454
aF6.6577794569915234
aF20.448326044266238
aF8.8928886166310761
aF6.3151423623570793
aF4.467351529016959
aF4.6450397444671268
aF5.679449263509639
aF23.795904615289388
aF10.172714953443233
aF7.1495104635493778
aF8.2305190101904344
aF14.852536310428491
aF4.4026895168941849
aF16.861112627193137
aF6.8043077732404811
aF4.8173696788358171
aF4.6744013646995199
aF9.4097736738775595
aF12.051062720589073
aF10.893798651321816
aF7.094164040371794
aF13.919286586514795
aF12.432923846330795
aF5.5811794640778203
aF6.4166038754062811
aF6.6483322444598087
aF4.3682552162368324
aF7.6426368047463598
aF5.8646623119249801
aF51.15089377004567
aF4.3521738499651121
aF6.1330857992429202
aF27.374629375091402
aF32.368960050995668
aF14.178548229053803
aF6.5093661446282098
aF13.564901818192027
aF16.989116705866792
aF5.1592200843700091
aF5.1477321160337368
aF6.4763273502738343
aF4.8001562095703889
aF6.1616746851084372
aF6.2327525980961127
aF22.894347533403248
aF4.7824953394820326
aF5.1389001340320597
aF12.619527547546653
aF4.3397586318858306
aF4.4819053370416491
aF6.7869786677420336
aF4.4026895168941849
aF6.816055891731903
aF9.2122077823566855
aF9.9866310693887144
aF7.1066118686231334
aF4.4932020974408431
aF4.9815628775022844
aF5.8109835565195169
aF8.0209259725985085
aF5.8170189531072722
aF8.5677558999864409
aF5.8519725570257748
aF4.0037672307926542
aF5.0747561464224304
aF4.8520792997702813
aF4.5420971144572491
aF28.803880998452442
aF9.7117456830990818
aF4.1081321612378474
aF11.15403054804942
aF5.3601327015316258
aF15.138054762254473
aF4.0454934864638261
aF6.5156775952767987
aF4.253839342362113
aF11.290214959145779
aF5.8942242940916003
aF19.136898132373521
aF5.0254166612123186
aF7.6142511008419547
aF5.5504618652456514
aF4.294625681010686
aF10.11167167654807
aF5.1170797128789047
aF4.8658151059530184
aF13.445136630510291
aF18.200905132037079
aF4.5129915007143424
aF31.906614887729248
aF7.7171260315958676
aF6.4925775550437947
aF6.9038125463282514
aF6.3015603260671611
aF7.5601740107874491
aF6.4409397395039605
aF6.3015603260671611
aF7.2123144623315234
aF7.0169776050245929
aF5.527565692458758
aF5.0489384620311597
aF7.4451219677203255
aF6.3302409175077976
aF10.058141681231817
aF10.517808035878375
aF28.522265868306196
aF5.2266268273894028
aF5.0171705050183846
aF22.066153147417992
aF6.9096781718868954
aF4.1681208922115616
aF5.4350812119077432
aF26.057598917281183
aF13.392086292263826
aF4.1960786364379743
aF4.9633453691597254
aF38.641345891211877
aF4.8068663268116154
aF6.0244545139747032
aF5.4207471135957164
aF22.066153147417992
aF9.0154168998272581
aF7.4451219677203255
aF6.6076972051271099
aF5.0694707235473651
aF7.7845007455780859
aF8.584818040755124
aF4.3032306935757845
aF4.1754115528440536
aF5.1362068349743595
aF11.277884067118208
aF5.2605469923408918
aF7.1547716071192866
aF5.1922615857489234
aF9.9912494893144981
aF4.7871845179984405
aF4.5035198795110531
aF10.363967256484088
aF5.7343154836460855
aF12.752616188858539
aF5.6800398900294624
aF4.0894782777367666
aF6.5676638724749168
aF4.7468408198192122
aF7.1244385452160373
aF4.8590863537280882
aF8.8982665089326787
aF4.5247370485894436
aF35.536710452479184
aF4.5035198795110531
aF4.2498582525494726
aF9.7309159077192078
aF5.936162152186256
aF11.338524234369856
aF4.081469319948571
aF4.3417756342183651
aF11.29462760628806
aa(lp19
F6.7004096161528608
aF7.388328682190604
aF11.973179563217215
aF6.8069626262700638
aF4.3396411580441709
aF5.7878211565625861
aF13.166261341260565
aF10.201045607632523
aF15.942367944571181
aF8.860144831512784
aF5.8160569532359432
aF6.9012377747509959
aF4.9159069066788419
aF8.3278938939664897
aF4.964145792239222
aF8.8682510558823751
aF10.61386732655086
aF12.197386696780889
aF6.022406734541903
aF4.2165066385547334
aF7.5159428645651474
aF8.1187063326772488
aF7.0586229104136464
aF6.584785200181372
aF6.5686593586377171
aF16.699401349917395
aF12.485406642701406
aF8.5638273382649857
aF6.4843013232621303
aF4.1444945261455644
aF5.5180735303613346
aF16.370717365196739
aF7.7030855901857294
aF7.9033835064134053
aF6.1926000431685111
aF23.031900568894521
aF6.4291697008921709
aF5.1353011443557204
aF12.458276439633451
aF4.2314757981511271
aF8.0971916556534893
aF13.443506211325747
aF5.2442486236219956
aF5.0149619458235941
aF8.0887304100743762
aF6.8043077732404811
aF6.0188930247679195
aF6.6755865996625836
aF21.734937037913838
aF6.5227368929480605
aF9.1092889808335542
aF18.401930421982691
aF4.999536795400175
aF5.2324271634311401
aF4.8664539234657411
aF4.1425415113838042
aF7.897362289555133
aF7.3254409586550508
aF12.648096437261614
aF14.786180828070599
aF12.511089940046165
aF30.491658331354117
aF22.759598884552439
aF24.805933695498481
aF11.282471105347213
aF8.015687451545574
aF4.1396233851445743
aF5.7308799850697056
aF10.388741634977634
aF6.4724636105575861
aF4.7351601326618891
aF5.366457979521563
aF4.1037179770676033
aF7.1066118686231334
aF4.8804646360435413
aF18.863364049161788
aF9.2580736582272607
aF6.1616746851084372
aF4.2296999960261701
aF9.9062670339762207
aF21.468324189020521
aF5.1391221855805611
aF5.4678159203027263
aF9.5383137698861731
aF9.0223491970393752
aF5.1699236357378595
aF4.2516588014529759
aF13.909856068969656
aF6.8499856043709428
aF4.213352684270653
aF13.43190364209725
aF10.404404027367605
aF21.721503156773409
aF4.6000736226575754
aF4.2296782545398983
aF4.7050406299163114
aF9.2060615117964346
aF18.0554574184616
aF16.667947093040397
aF4.92855952188971
aF4.3856356200537618
aF6.2614043838920423
aF6.0244545139747032
aF20.992261005157907
aF7.9088190481138128
aF4.578769123202278
aF4.4748706579342681
aF27.363892378878599
aF7.8039131893380898
aF11.76540225046984
aF6.8342847813357253
aF6.8021532974761669
aF6.3340459903348076
aF4.6313296667512418
aF4.7201914707855792
aF8.0797188659821586
aF5.1922615857489234
aF7.8176412659834966
aF4.1110725617729997
aF4.0490071284933151
aF5.8442588071918635
aF10.991670518896001
aF4.3546997605824629
aF6.2011956799216961
aF4.0177252185128651
aF6.7880024046782239
aF4.7946011392946133
aF10.500901524011297
aF8.9590344777118816
aF6.684504838624548
aF5.1853581132201896
aF5.4695385423842087
aF6.4180668267532575
aF4.2684456900351364
aF13.495400369582967
aa(lp20
F5.0281785326946817
aF5.8249798870192535
aF4.1844602780948819
aF9.0578012889668145
aF5.3304328822530991
aF7.3900713115760652
aF5.2733484657438439
aF21.437970862716398
aF4.6808699713098179
aF7.3900713115760652
aF17.373653772491469
aF5.7508497951422584
aF4.0955186181252001
aF8.860144831512784
aF6.8988549489822546
aF9.3185461919869184
aF4.2491286920705988
aF8.9295971553592164
aF45.970747200507077
aF4.2029426389543545
aF4.7850524431284782
aF5.3304328822530991
aF5.8884983303361551
aF6.8939966388871028
aF8.0971916556534893
aF4.8902567988116843
aF4.5735207199803165
aF15.836434548842812
aF26.090590465565498
aF4.2026468506246886
aF19.729376701874031
aF12.242227090866379
aF10.83112827215777
aF4.0487498162294173
aF6.7006827079514863
aF8.3658995472954132
aF4.7916793227816932
aF12.454978892516749
aF22.279536433287802
aF5.2878030685493513
aF8.3337057465795752
aF12.485406642701406
aF4.4054178444231633
aF4.7165942778075003
aF20.354459491961052
aF10.999158153923645
aF6.0229096675536855
aF6.4843013232621303
aF8.1187063326772488
aF6.366122914349404
aF11.549834911400225
aF18.649991226150373
aF6.0180258757791023
aF4.4350724960755059
aF4.4705938475522444
aF8.8266979474097731
aF4.390995854281158
aF5.2894231210682321
aF7.6016321854160065
aF4.2314757981511271
aF5.81704044753414
aF6.1934081566779184
aF24.655099249990254
aF12.316057730842033
aF7.4935851694832252
aF6.1538545894426768
aF4.8760341329809478
aF5.5489142410905146
aF11.57626973012141
aF6.6425645405063136
aF7.5085536874223493
aF8.2837979787454401
aF12.686073099962311
aF5.2079927576888165
aF4.7916429517933778
aF6.8700639303250171
aF23.047708550566014
aF8.7837763787399297
aF19.86334340976704
aF8.4238422323755771
aF12.105913038801461
aF4.4927427761900276
aF4.4927427761900276
aF7.1946838580407046
aF10.738796762654822
aF10.44662339173383
aF7.5131144808216455
aF14.754095587787489
aF6.0294448618853664
aF15.889131161511187
aF4.1545989352202497
aF4.4375111490005281
aF5.2477884596409012
aF4.5183138178106645
aF4.6730662991319321
aF4.9857364902395034
aF4.0664708566484506
aF7.3766177640435693
aF4.120736871220501
aF13.789594680214606
aF17.221484521763486
aF6.1330857992429202
aF4.9702738258083752
aF11.027070596330653
aF5.2341394825709529
aF7.3254409586550508
aF18.161620808887577
aF7.1066118686231334
aF12.153876888582332
aF20.677549717550278
aF27.352462410500095
aF12.929349677683753
aF30.056547044680812
aF5.7439970972339438
aF18.368971668348181
aF5.228923121942457
aF11.602933953014343
aF11.115602684413076
aF6.1616746851084372
aF17.521213019280729
aF4.8592601563258881
aF21.278466494547814
aF5.6469120946982514
aF5.3019142538602466
aF6.4324019299149295
aF6.0188930247679195
aF9.8964833695954422
aF5.366457979521563
aF4.8230925605835608
aF7.6545885132073437
aF5.1453621184638791
aF7.2730085853401736
aF8.2826823970407464
aF4.3253185704947965
aF4.0184009277386608
aF6.8499856043709428
aF14.257588736241161
aF6.4724636105575861
aF7.0169776050245929
aF4.4463860105065596
aF7.0668738515131668
aF4.6514393339520694
aF6.7798581932864579
aF19.430241115267549
aF17.786907911523542
aF4.3889258600720211
aF7.1579930375938439
aF7.510677377125468
aF4.213352684270653
aF4.1021174377244876
aF7.7665783516050837
aF5.8447734784358305
aF5.6954740626579081
aF16.717108864742485
aF8.0797188659821586
aF4.854848705370614
aF4.1582289668099293
aF5.0593819551837367
aF8.4593630350340376
aF8.0366503215685725
aF9.6046855171112355
aF10.081168506222696
aF4.4265973211990968
aF6.3856326345959928
aF6.2944635888762477
aF6.5215047909682369
aF19.123269428460773
aF9.9698851757686242
aF10.373614364008318
aF10.517808035878375
aF4.0850960791783688
aF6.3104720168467026
aF4.4578373733095447
aF5.8610717080913375
aF4.2355984132357918
aF12.530394430673994
aF32.196468227128577
aF15.543452881444864
aF11.598775995362629
aF4.1018258800798257
aF5.5633748433507719
aF4.9399546199792397
aF8.6011552240596583
aF26.062927905816906
aF20.246103524472147
aF7.7749079027003676
aF30.183967650094658
aF4.8813118942404685
aF6.886122000471147
aF26.566741070290377
aF14.918665906300857
aF4.2143188303616341
aF5.4497802784670171
aF6.6199284881361393
aF11.76540225046984
aF5.0724181138712368
aF12.509579596145848
aF4.3665198646054222
aF44.666521974242819
aF6.841411796665251
aF4.4254977808660954
aF4.7949087559645704
aF4.1110725617729997
aF4.7011383133744005
aF5.1947386158484221
aF8.1268064166318936
aF6.5989292268557023
aF6.3964740693198365
aF7.5396918730987892
aF4.8820794001902925
aF9.1116118768156795
aF5.4526862296975622
aF5.423920878433762
aF5.4963089879731939
aF5.4726370122411652
aF8.5972663508146141
aF26.74808331325336
aF5.8325462303326248
aF23.204874908879908
aF8.643231375761097
aF6.1818436341339265
aF6.7510430926245846
aF5.0200127362489297
aF8.5091859642408565
aF4.5247370485894436
aF35.536710452479184
aF4.4479651879463802
aF4.2498582525494726
aF13.874254038233786
aF6.9197438474935353
aF6.5461772264334286
aF5.3005210439048369
aF4.2584705788213881
aF14.251702090852305
aF14.85250254233488
aa(lp21
F7.9673718698597042
aF16.597482088955289
aF6.3146896955541081
aF17.014030605141897
aF4.6367233278678608
aF4.1945410398015213
aF7.3900713115760652
aF5.89016872238264
aF6.2793452086199508
aF4.9350805508368865
aF6.803201994771598
aF4.8136221127630279
aF7.6426230249909395
aF12.142539723872048
aF7.0374142560211013
aF5.6201256526038321
aF6.192586623790433
aF8.392694462779696
aF6.1079152560966179
aF7.055419568546057
aF19.839648048507428
aF4.1006128614627926
aF4.2666605168178346
aF6.4386846320687994
aF4.4675381458152117
aF5.1485186274660535
aF4.1095633815179724
aF12.614730147409759
aF11.780671569672762
aF5.4193175200027781
aF8.2109682466475871
aF4.0250905226462663
aF5.65340700763565
aF6.192586623790433
aF6.9998468578096862
aF5.1353011443557204
aF9.8294380375793224
aF6.7982446701921759
aF4.5735207199803165
aF5.1939307553696494
aF10.999158153923645
aF4.3651029435485498
aF4.2491286920705988
aF10.83112827215777
aF4.6855933294789196
aF4.0028353838035997
aF4.4181231439438591
aF10.88203949053692
aF21.955412450242356
aF7.6926986282375367
aF7.1026907808309403
aF4.0739602923198674
aF12.197386696780889
aF5.351464676562756
aF5.0943965721445181
aF5.5083395322045163
aF5.6011411201728833
aF5.6419180396880222
aF8.8286133825313442
aF6.5686593586377171
aF59.639219289450253
aF27.532381019693361
aF8.8911080867916041
aF5.2878030685493513
aF5.2169401031058271
aF7.308552388258704
aF4.0027833145805971
aF5.1640488517426988
aF5.6508862766998647
aF5.0281785326946817
aF9.9666987819538804
aF5.6419180396880222
aF13.476953900260895
aF24.401621600957355
aF20.354459491961052
aF4.5146334964554597
aF18.517272645876545
aF5.7958406787358712
aF4.1114513402478678
aF7.0147521892657423
aF5.2177577877612293
aF20.085129443370519
aF5.7008364498940161
aF7.7665407133225131
aF6.9341569736299817
aF4.5075691965695341
aF10.491674454036726
aF5.6017972146966368
aF12.853984170986507
aF8.6583096833911384
aF17.55831701043499
aF15.249990329196837
aF8.8051477276513879
aF5.6003898823373675
aF7.4935851694832252
aF7.2546899136150742
aF5.2831009853238804
aF7.8576326127868299
aF8.0887304100743762
aF7.1026907808309403
aF5.2782328667513383
aF6.8043077732404811
aF19.133996013752171
aF5.8774106932291232
aF4.2850818201820147
aF6.8700639303250171
aF4.4927427761900276
aF6.314222198200234
aF5.3628364044641543
aF8.3000826776447383
aF5.07555694805834
aF12.432923846330795
aF4.2422935048261934
aF9.5290173674500949
aF4.3586847040877359
aF4.596452028372763
aF6.4291697008921709
aF8.4238422323755771
aF4.5806429376925735
aF7.4557876921013531
aF12.105913038801461
aF4.4927427761900276
aF6.9040582980531724
aF9.1481359875161683
aF7.5386837337632073
aF9.1481359875161683
aF4.8222875116610737
aF4.5162596686161489
aF7.4249325646834166
aF17.096276059752967
aF7.7030855901857294
aF10.021959807180281
aF4.0016696231527078
aF7.0383863260237121
aF5.0143371886506394
aF6.6600754211858373
aF4.4927427761900276
aF11.209779440757146
aF5.9760063006439026
aF6.2341522721494584
aF5.3823192636926933
aF6.6037613470399066
aF9.3820185545766748
aF5.1127080219041829
aF8.3759663585734927
aF5.9517129924884031
aF7.7085068599274962
aF8.531743728615151
aF14.988508119979087
aF6.8099297459502921
aF5.5811794640778203
aF6.6483322444598087
aF7.189047032269464
aF5.4219949659968059
aF8.2147054095184444
aF10.865027581655639
aF12.457119006330188
aF6.1616746851084372
aF13.794809322280656
aF5.345047908809466
aF10.06292896259815
aF6.2223811027819949
aF12.602024156900569
aF5.9734512169628786
aF11.363216169270018
aF14.112470118334244
aF4.1532305470226731
aF4.4819053370416491
aF16.045768141351324
aF4.0994539505690355
aF4.8597096044336467
aF6.3945016016973923
aF6.3945016016973923
aF10.396231187601259
aF21.220938523484257
aF5.2134641071676526
aF4.1488668961546296
aF4.1011057587005766
aF4.0890661737537215
aF7.6618659927090249
aF5.0367648506652749
aF8.162362746741195
aF5.8420570173615829
aF6.3892065624969518
aF5.0723445985013029
aF4.6730662991319321
aF14.103757552956205
aF11.552587044142101
aF7.5432161826119568
aF5.0219713851341794
aF6.1418765090569112
aF16.91880193321095
aF13.465308803233796
aF4.4926240773309729
aF8.4249386672957058
aF4.1111883509603757
aF7.6065387535422531
aF4.1089172090802393
aF9.0223491970393752
aF5.1699236357378595
aF7.7732672660551572
aF4.859026481268458
aF7.7171260315958676
aF4.2516588014529759
aF11.123155952338287
aF8.877208893137805
aF5.0749309017999309
aF12.426652469745571
aF4.2710981539074471
aF21.106755952578148
aF9.7012933761344797
aF21.468324189020521
aF4.4932020974408431
aF5.9837285728285607
aF7.1325941759125371
aF8.0635370909097901
aF6.3716420787717709
aF14.141307718935536
aF11.164124970068997
aF6.596415493101162
aF4.1120451546272676
aF4.2786884593765535
aF5.9084956803453395
aF12.413869314252707
aF5.4234710921650704
aF5.4216926955523164
aF4.3495235253781743
aF6.0244545139747032
aF5.4350812119077432
aF4.4120789951546113
aF8.8292548636258772
aF28.403409386152092
aF8.9439638255827241
aF4.442728422187745
aF4.6461156981418839
aF62.926908385796253
aF6.3260135983311496
aF20.003140650543969
aF6.7814050864677142
aF4.3495235253781743
aF21.079013325138106
aF6.4064462492537331
aF13.441175379872867
aF6.0244545139747032
aF5.4207471135957164
aF5.9966188700687439
aF4.8813118942404685
aF6.8590754880967921
aF6.3340459903348076
aF12.679188640040493
aF5.4497802784670171
aF5.0254166612123186
aF6.886122000471147
aF4.0842481769057173
aF6.8043793072819554
aF10.669286083277122
aF6.3015603260671611
aF18.134266741642406
aF6.8414392173593512
aF5.6057947844350053
aF4.8820794001902925
aF5.2605469923408918
aF4.7871845179984405
aF4.7871845179984405
aF4.859383059453382
aF5.4604307235995719
aF6.0658661923872472
aF5.3796020758729526
aF12.69083090062324
aF13.820160494469803
aF10.691807739730685
aF12.954253653529415
aF4.7468408198192122
aF6.7255914929889045
aF6.7437764288936535
aF8.0656843422717301
aF5.4343557880680251
aF10.80360801515279
aF6.0734435973925258
aF5.2021167546455942
aF6.0244545139747032
aF5.4207471135957164
aF22.066153147417992
aF4.1144414422022777
aF4.4531871810675554
aF6.1709974522734967
aF6.886122000471147
aF4.6038709180454731
aF4.2402530785445407
aF5.8311115900143591
aF15.26495252019744
aF4.2498582525494726
aF4.0894782777367666
aF6.3340459903348076
aF9.0367221493219496
aF5.4388635148710591
aF4.3417756342183651
aa(lp22
F5.8545501115465584
aF4.3354500203645614
aF4.3753668764308529
aF10.829011572647353
aF5.9987548479552117
aF8.2352038912160026
aF5.226905813222686
aF7.8757331376333966
aF6.3215650992056851
aF6.2793452086199508
aF5.6511462214861687
aF4.2612325502330535
aF5.2365260653651546
aF18.517272645876545
aF16.913126677931842
aF7.4557876921013531
aF4.790796897596465
aF5.0192195127735317
aF15.534120215215452
aF5.3989044763575329
aF4.2491286920705988
aF5.0192195127735317
aF4.3980266270183392
aF4.5361624704725045
aF4.8571828377575912
aF27.027712377261444
aF18.336022122811272
aF5.2056108633092038
aF5.351464676562756
aF4.8760341329809478
aF9.6411434650255217
aF7.3238245689924781
aF5.0188492992309728
aF5.7643919143868771
aF4.7916793227816932
aF11.800503344200152
aF4.1491095325586631
aF7.0586229104136464
aF5.333836892301532
aF5.8774106932291232
aF12.789908242443602
aF22.279536433287802
aF11.862027151504162
aF7.897362289555133
aF4.8760341329809478
aF15.054699039023674
aF8.6366873611029789
aF4.128130170602077
aF11.800503344200152
aF13.334432454266992
aF5.384660573616344
aF13.446966087289042
aF26.506207843186218
aF10.683656059255979
aF5.7882911020497581
aF4.0994543018559852
aF4.9727891217170281
aF5.6280311577699393
aF20.532285317847332
aF5.411070418306366
aF4.5512242381363706
aF11.114125117520643
aF5.1911596908747555
aF5.147437360982309
aF9.1092889808335542
aF4.3741153659107681
aF4.1588501557861264
aF4.3827849542842898
aF6.0294448618853664
aF7.3530675787120927
aF7.7732672660551572
aF4.0168757055893982
aF4.876511628928327
aF22.95450699222549
aF5.5746079976967167
aF6.6600754211858373
aF4.7043833719446297
aF4.8466747506824674
aF4.3522316307435887
aF8.0909412311346713
aF13.662934048532335
aF7.6016321854160065
aF6.777619872198386
aF14.141307718935536
aF11.334599305969078
aF7.7965927011297964
aF4.9741277450436883
aF5.9517129924884031
aF43.492084449725922
aF4.120736871220501
aF9.1092889808335542
aF4.3521738499651121
aF6.7441965735092708
aF4.528070561675321
aF6.3492955109739455
aF6.8421677631457261
aF14.112470118334244
aF6.1675738295991636
aF6.4277028022705593
aF9.8964833695954422
aF6.5467046363002517
aF9.8964833695954422
aF5.6253136812076932
aF4.8597096044336467
aF4.3122791292008316
aF4.1090406553768446
aF10.062749538726933
aF4.1960786364379743
aF4.9727891217170281
aF4.0184009277386608
aF5.7091949067229706
aF8.4148487630514808
aF7.4974853225542688
aF14.982440020117892
aF4.0930049087631319
aF4.4477484601576727
aF5.1352968076113825
aF4.1503885512561283
aF5.4152662104940674
aF4.4932020974408431
aF6.3697997395846073
aF4.6881655967090046
aF4.1011057587005766
aF5.5036342561169675
aF17.05142579302866
aF12.516102868793041
aF7.9528438941237507
aF4.5521162674128917
aF5.4708659502840433
aF4.0184009277386608
aF4.1960786364379743
aF4.1503885512561283
aF4.4932020974408431
aF5.862605321802306
aF13.690117001882498
aF4.4463860105065596
aF10.11167167654807
aF5.0555145406680957
aF7.5383489943884463
aF18.0554574184616
aF13.820160494469803
aF6.8671201226856482
aF4.9617061314077091
aF4.5449208354930875
aF6.4409397395039605
aF6.7981579377521832
aF6.8369936117784178
aF4.1681208922115616
aF9.7970117525479878
aF12.543604061303725
aF4.1700261183497034
aF9.803226477174988
aF9.9492855644446792
aF4.3122791292008316
aF8.4074108379318773
aF6.4970571710669418
aF6.8342847813357253
aF8.5972663508146141
aF8.2425871156193296
aF6.5217866443375385
aF6.9961685018376158
aF15.636456610305313
aF12.897311828782939
aF5.1486708975857525
aF7.1018844119572577
aF5.9853649463432532
aF4.1089172090802393
aF4.081469319948571
aF5.423920878433762
aF4.0045353749351591
aF11.130162355966178
aa(lp23
F7.1146383658766368
aF6.5407814244458606
aF4.7284887557849906
aF6.8100122901082045
aF15.125739665025902
aF17.147331219879575
aF6.4386846320687994
aF10.810813033481395
aF14.964835997241792
aF4.2334089936332475
aF9.3185461919869184
aF5.8531806109161266
aF9.2107025368808024
aF6.0184689186719567
aF5.1131951645774336
aF4.665000758920911
aF4.1555132091682196
aF5.2922875558802218
aF12.614730147409759
aF8.4714071151918233
aF5.2946818475112813
aF6.9576993587158427
aF5.3301148348354452
aF6.7006827079514863
aF8.3658995472954132
aF7.3086790848702989
aF5.4624412906748105
aF4.2165066385547334
aF13.869211079230269
aF4.8557970713038898
aF4.1159799344361261
aF4.0322328341375737
aF5.9457110531675994
aF7.2140264237755076
aF4.8760341329809478
aF6.5308702172280064
aF5.5811794640778203
aF4.5061228548245822
aF5.0097010156080017
aF4.0325386529270162
aF5.0459395205424897
aF20.429342654616349
aF12.789908242443602
aF4.8217107934594878
aF7.7030855901857294
aF6.325874711475457
aF8.9722864589731586
aF11.126737313284622
aF4.7283371261283378
aF8.0931637567648806
aF10.683656059255979
aF15.249990329196837
aF7.0586229104136464
aF4.3634469019353048
aF5.9378453863419622
aF4.8760341329809478
aF6.5416845661432319
aF4.9727891217170281
aF4.213813071994025
aF7.2538862047199331
aF6.4377786798299752
aF4.9534198106777794
aF4.0384477020309504
aF4.0821711450904523
aF5.411070418306366
aF4.9089028510946946
aF13.297686629074242
aF14.458350477174278
aF5.2840693368559215
aF4.1846985359841256
aF9.3428846558163343
aF6.3151423623570793
aF5.3628364044641543
aF4.6076266629217884
aF5.2453927953382617
aF8.6111045374838451
aF4.0664708566484506
aF5.0861296752640612
aF4.4927427761900276
aF4.7043833719446297
aF4.8466747506824674
aF4.7283012053491831
aF13.662934048532335
aF4.0605794692975365
aF9.4581337593318722
aF4.1256575578848995
aF5.1045788309785749
aF4.0783551515540228
aF8.1914478116949176
aF5.1911596908747555
aF8.283115685040741
aF5.4643478807143673
aF6.9213249001184529
aF4.0168757055893982
aF8.5368946119399958
aF7.6837687465147226
aF7.7176662679441748
aF4.6730662991319321
aF4.9857364902395034
aF4.4463860105065596
aF4.3397586318858306
aF8.0146302392562916
aF7.2040811089929662
aF4.4534486515273102
aF6.1616746851084372
aF4.7824953394820326
aF8.2826823970407464
aF6.3697997395846073
aF4.7578211471267053
aF4.3253185704947965
aF14.141307718935536
aF13.572222763165328
aF4.0930049087631319
aF8.4283484761431673
aF5.9659499264764833
aF7.7857001382677566
aF9.0987488523838493
aF6.8309174679852589
aF13.501203161177664
aF5.4708659502840433
aF24.072530252703782
aF5.9410276672104629
aF60.945110761324663
aF5.6954740626579081
aF5.9734512169628786
aF7.5463617548432751
aF6.3716420787717709
aF5.7983183391368627
aF21.356897954768641
aF4.144347825305374
aF8.4323165226596828
aF4.6730662991319321
aF4.9857364902395034
aF9.7203608503682091
aF21.992543483813911
aF5.8646623119249801
aF8.2450020835705544
aF6.0244545139747032
aF4.9166188340472416
aF5.5986396172536246
aF6.7074322319467399
aF8.2999687581771298
aF9.42224875951581
aF5.8610717080913375
aF31.34108309820634
aF6.1558824131665943
aF5.1592200843700091
aF5.2762911060067097
aF4.8791089552209961
aF15.444817787376905
aF6.9032763321284136
aF4.4406993963917358
aF4.9669179116396691
aF4.6215928842724736
aF8.0916502895939928
aF13.879086960741873
aF4.3665198646054222
aF5.8995442647987879
aF5.4196139036440343
aF15.448281893154657
aF6.5889618617270962
aF26.062927905816906
aF20.246103524472147
aF4.0490071284933151
aF4.841001668726939
aF4.7759158663436141
aF6.5989292268557023
aF6.148895367385073
aF5.1888366776489505
aF5.1961394927842406
aF13.186109935721333
aF4.3546997605824629
aF6.2011956799216961
aF4.3732764707610485
aF4.4162875712444247
aF5.3601327015316258
aF6.9590024046952337
aF7.2021855866549487
aF5.8925503316392422
aF7.8264645112513742
aF5.7190376337928797
aF8.8085326359299838
aF10.510996107070611
aF5.2203528978047871
aF4.0045353749351591
aa(lp24
F16.959620809589424
aF8.6957375268440273
aF5.1485186274660535
aF4.2314829274738512
aF6.2668369094180605
aF4.8975552559915059
aF4.4181231439438591
aF4.0027833145805971
aF17.493063988256111
aF4.8664539234657411
aF4.5146334964554597
aF23.997152783784571
aF8.3063004042897148
aF4.9452407809684047
aF8.01531975548302
aF4.3829467469907826
aF10.40369506622973
aF4.4054178444231633
aF6.8915534401777165
aF7.8576326127868299
aF5.5811794640778203
aF8.1282778146994659
aF7.5386837337632073
aF9.1481359875161683
aF4.8664539234657411
aF8.8986616272989494
aF7.7030855901857294
aF4.1115782610900169
aF7.3600812130516005
aF4.0605794692975365
aF6.5153052886228977
aF18.401930421982691
aF7.7030855901857294
aF16.443463419850389
aF6.3906360301246679
aF12.929349677683753
aF47.37317956786309
aF8.1638551232083074
aF22.759598884552439
aF4.7824953394820326
aF7.9341837861331186
aF4.0994539505690355
aF4.1681323873796501
aF4.7514198432500194
aF7.0098703109799487
aF7.0098703109799487
aF6.813717169019526
aF5.3601327015316258
aF5.0743950140401779
aF10.413648162873791
aF7.3530675787120927
aF4.2608478914044667
aF6.6879416648957246
aF9.8964833695954422
aF14.331709783613395
aF13.851039263385985
aF5.5511976197032453
aF11.043994256531874
aF6.8671201226856482
aF4.1386368229300672
aF5.911423634144839
aF6.7507828207882312
aF6.3302409175077976
aF10.058141681231817
aF6.9096781718868954
aF5.2266268273894028
aF6.886122000471147
aF4.0842481769057173
aF9.0439482557789432
aF4.4985118778440665
aF6.8590754880967921
aF6.7798581932864579
aF10.277511963518911
aF4.1027017635444611
aF11.435757600580544
aF8.5972663508146141
aF6.7880417113299387
aF5.9963813159151016
aF5.7385766036317989
aF5.0561188894596683
aa(lp25
F9.0869479367134858
aF5.3736814060065683
aF4.6367233278678608
aF4.2666605168178346
aF5.8174811309453247
aF4.2334089936332475
aF5.8616654731008566
aF4.3808066628666502
aF5.1412000808840048
aF6.8939966388871028
aF4.6459937466977204
aF6.8988549489822546
aF10.358194062718283
aF11.299631139017038
aF5.2365260653651546
aF7.5159428645651474
aF4.2419268494206506
aF6.8465933938917374
aF5.1195516745542733
aF5.2878030685493513
aF21.738755534968327
aF42.357478412930874
aF6.5686593586377171
aF7.0586229104136464
aF5.3231761369051753
aF4.8799070745470488
aF11.57810903299233
aF4.00701200205825
aF11.800503344200152
aF8.6092889556198173
aF4.5061228548245822
aF5.8858196989244078
aF5.0842996395864439
aF6.2167635980300986
aF6.1934081566779184
aF10.194728381414336
aF6.9001533756520885
aF7.3277213543843516
aF6.4291697008921709
aF10.394047918094572
aF15.454936553875243
aF4.7283371261283378
aF4.6303791108346743
aF4.2314757981511271
aF6.022406734541903
aF4.2165066385547334
aF8.4714071151918233
aF5.0149619458235941
aF10.828688446899164
aF11.690839090897683
aF4.375917613679043
aF7.8855930799127094
aF5.5489142410905146
aF7.7767862900315237
aF6.4377786798299752
aF5.358584049485529
aF5.6031635075553368
aF5.2061826042705093
aF5.4100451158188605
aF4.4927427761900276
aF5.679449263509639
aF15.054893606309435
aF4.3586847040877359
aF4.4884971308023687
aF7.4557876921013531
aF6.5770181875313085
aF5.3016842485093747
aF5.0245708118905554
aF10.365601597311686
aF4.475610000895955
aF4.1545989352202497
aF5.1365121115390195
aF4.4927427761900276
aF4.1115782610900169
aF9.0149645762700175
aF11.209779440757146
aF5.8445049060411094
aF8.4930688977333908
aF8.2960204357787344
aF7.6985945537267106
aF5.5811794640778203
aF12.937728768660058
aF5.3294763054550174
aF4.660119366131326
aF5.0566215278169366
aF6.4912367534101065
aF6.0584634680967611
aF6.2223811027819949
aF9.1876941902889797
aF5.1389001340320597
aF11.007762936663511
aF8.283115685040741
aF5.7530808316956836
aF7.4747232604016176
aF4.9023583531553783
aF4.8597096044336467
aF4.0994539505690355
aF4.0780382987905606
aF4.1681323873796501
aF6.1389686153781611
aF10.475881751435494
aF5.8539320921640581
aF5.8582365514367751
aF6.1630746900560496
aF4.4926240773309729
aF4.7283012053491831
aF4.8466747506824674
aF4.7999758228216081
aF5.0749309017999309
aF6.0987864922468233
aF4.5795096109740712
aF6.8499856043709428
aF4.5585204093561984
aF4.4254977808660954
aF4.3817434320040718
aF4.4088849447236953
aF4.1888585037298611
aF4.2358717691978782
aF4.6730662991319321
aF4.9857364902395034
aF18.759992609120161
aF9.7968461054336586
aF6.4409397395039605
aF12.132762091690552
aF5.6173852843099468
aF6.0704652912058918
aF4.9166188340472416
aF4.7331061148229878
aF7.6035466535160054
aF4.3484600394822053
aF4.6737634112426107
aF5.3817369404764008
aF10.058141681231817
aF4.5636044733199128
aF5.1825310453498616
aF44.615063435572353
aF17.240506507584854
aF5.9659499264764833
aF5.2261698883059111
aF6.2187611131371199
aF8.0916502895939928
aF14.977702106479029
aF4.442728422187745
aF6.1558824131665943
aF4.8597096044336467
aF5.4446984357306007
aF4.2049841890459128
aF4.2049841890459128
aF6.0890962576924039
aF5.9734512169628786
aF6.74240485624615
aF6.2073344732677258
aF8.3936010068990683
aF7.9088190481138128
aF6.7822961569534783
aF4.465743851544854
aF6.2036461283426121
aF8.1497230843698105
aF5.423920878433762
aa(lp26
F21.425747709139898
aF5.9029658036489465
aF6.4325506169875482
aF4.9354359239919035
aF5.1946023766782048
aF7.9929168530587447
aF5.9365866054022476
aF8.5370434759976632
aF5.1433845477676243
aF5.0192195127735317
aF4.1666726607336209
aF8.2728847110823338
aF8.1568309540955113
aF5.8379551344283698
aF9.2044608914518165
aF8.3380941276965785
aF21.241977015466915
aF7.1096706877009836
aF5.2164238744651215
aF6.7087531460086467
aF9.0295850572300509
aF37.732776529630499
aF5.8428152324871654
aF9.8440937239967692
aF4.9452407809684047
aF7.924942064700474
aF7.4270129602099288
aF5.820331715468825
aF4.3522316307435887
aF9.6004348491341034
aF7.7030855901857294
aF7.1170918107196428
aF15.270182134474503
aF7.7085068599274962
aF15.478483390255299
aF19.33685529084778
aF4.1782933004539871
aF4.1225294685041547
aF5.4678159203027263
aF5.862605321802306
aF5.5115641532081625
aF10.062749538726933
aF4.0184009277386608
aF12.516102868793041
aF4.1503885512561283
aF4.1582289668099293
aF4.4265973211990968
aF5.0749309017999309
aF7.0078836179929453
aF6.2944635888762477
aF8.1302322428303597
aF5.1187040083405293
aF5.8029880989674325
aF4.9347671284922896
aF4.0378713332306404
aF7.9201830968723215
aF5.2261698883059111
aF6.1805106654055351
aF6.043019203030525
aF4.497767237255303
aF4.1027017635444611
aF5.1497181487499688
aF9.301756103197576
aF4.223062072771512
aF8.3081544467228881
aF6.886122000471147
aF4.0842481769057173
aF5.8009560749653843
aF7.9278178619879043
aa(lp27
F5.6890010736642296
aF10.829011572647353
aF4.3354500203645614
aF7.6426230249909395
aF6.2167635980300986
aF4.455343298166369
aF6.8075738191873256
aF4.2334089936332475
aF14.237353499465144
aF8.6092889556198173
aF4.9533681010702537
aF4.4053754860185279
aF18.336022122811272
aF5.2056108633092038
aF4.8813427740213022
aF4.3524823051984782
aF8.6572005885893617
aF4.0322328341375737
aF4.8760341329809478
aF8.2728847110823338
aF8.0901711077798879
aF20.354459491961052
aF9.0228135263337634
aF7.3900713115760652
aF5.384660573616344
aF13.345920014560587
aF6.6425645405063136
aF12.975528782925318
aF4.1752006691191639
aF22.362877365170633
aF5.3016842485093747
aF4.1468850121589256
aF9.6064468308378039
aF12.567497466044031
aF4.5818886919473201
aF5.0281785326946817
aF4.0325386529270162
aF9.7969446329117318
aF8.4823085348479026
aF5.2169401031058271
aF7.2327038069188632
aF6.5037802237049105
aF4.8904889463351964
aF6.2460891705279948
aF12.166904818282539
aF6.7945991459064317
aF5.411070418306366
aF5.7719533515308825
aF6.1296963797475996
aF16.00954070566587
aF4.6044422128539395
aF4.1037179770676033
aF8.5677215900173422
aF4.7283012053491831
aF5.0143371886506394
aF4.3741153659107681
aF4.0705123511610459
aF4.2008658912964236
aF9.1968381834132202
aF7.924942064700474
aF7.7965927011297964
aF5.0143371886506394
aF5.9160880478059781
aF8.3000826776447383
aF4.3586847040877359
aF4.4307113705679271
aF12.644295900604178
aF6.2223811027819949
aF4.4884971308023687
aF8.0146302392562916
aF4.7317369195721284
aF5.7293805872347967
aF5.2075170312452812
aF4.3253185704947965
aF6.8828968469835843
aF4.2695899310166538
aF4.9399546199792397
aF4.0646500093899363
aF4.9920289538327083
aF6.7717934147348444
aF4.5129915007143424
aF4.4254977808660954
aF4.4265973211990968
aF10.714087894697116
aF4.3941393805371227
aF5.1243936804700922
aF10.358667398998705
aF7.3825965215741078
aF4.1846985359841256
aF5.2227769670688531
aF4.0386768651774005
aF4.945612960725299
aF4.3856356200537618
aF4.5449208354930875
aF6.4409397395039605
aF9.0132334013171302
aF5.7433883989880741
aF5.0723445985013029
aF5.9084956803453395
aF6.22569263520748
aF4.8661659449460757
aF9.166934936856606
aF6.2677502828419449
aF4.1016144368529019
aF4.5076922705267464
aF5.4431636458847095
aF13.445136630510291
aF18.200905132037079
aF4.5405961454210484
aF12.197183478918163
aF8.1674660451340024
aF4.947260912061985
aF5.0717864449682111
aF10.455756956435032
aF8.6819412200600681
aF7.6815987326323238
aF11.217868844922172
aF4.1027017635444611
aF4.3098512709725725
aF4.5035198795110531
aF10.59260955183656
aF5.7740509130718181
aF5.1930172150106486
aF22.385358392526641
aF8.7468497267938119
aF4.6960750995791187
aF6.0244545139747032
aF5.4207471135957164
aF6.3980242645413909
aF12.622119265399647
aF6.6229353268790874
aF4.6308331789709598
aF5.5727773557619216
aF6.8590754880967921
aF4.9224831829942417
aa(lp28
F8.8320694508315398
aF4.3420799294707422
aF5.2006801324888556
aF4.6423072987865766
aF5.2093827533044958
aF4.1945410398015213
aF5.5270937571692826
aF9.0407941477138767
aF5.1270456972181933
aF14.194304404228973
aF4.619555004805239
aF5.5872811005544918
aF10.17632449273674
aF4.143311775021985
aF4.4053754860185279
aF4.8813427740213022
aF7.3086790848702989
aF7.9628562779503227
aF5.8858196989244078
aF5.9563638587606036
aF4.8571828377575912
aF61.864579459236978
aF7.308552388258704
aF5.5872811005544918
aF11.601290209177449
aF6.0557431969720028
aF8.0971916556534893
aF6.1315457726746345
aF4.3938914666881104
aF5.4682678705112693
aF9.5486487958288819
aF7.5131144808216455
aF30.681347055380343
aF4.4181231439438591
aF7.2192928841203781
aF6.5416845661432319
aF7.4888827141540446
aF4.7916793227816932
aF6.8700639303250171
aF9.4637782738415979
aF4.0172189056955006
aF7.2546899136150742
aF12.153876888582332
aF8.7742606610432166
aF4.4927427761900276
aF10.824008303745501
aF4.6044422128539395
aF10.40369506622973
aF6.7741513381859377
aF6.0081736035820299
aF6.8915534401777165
aF4.1425415113838042
aF4.0664708566484506
aF9.5985469480837509
aF11.308221737604633
aF12.832047510777556
aF6.8037978128068062
aF10.968645384891687
aF12.426652469745571
aF4.1386368229300672
aF4.8450475470606609
aF13.608845448666017
aF4.3214502775677346
aF5.1365121115390195
aF17.942057460233684
aF6.8280581666232933
aF4.1501294141189931
aF4.1489896847675993
aF5.0110706727874401
aF8.5425169961963832
aF4.999506819718107
aF9.7481962656968761
aF9.8321447722051047
aF9.6337307731177475
aF7.9088190481138128
aF6.7798581932864579
aF5.810416637988169
aF8.7985451999785305
aF7.0552713302629613
aF7.9266964990411379
aF5.90678560448635
aF4.9386705801647821
aF17.611899243156678
aF8.2917450036665628
aF4.7023849458251474
aF4.1916106245660885
aF10.466753731844959
aF5.9734512169628786
aF7.766475742407529
aF23.834885770781327
aF18.863364049161788
aF6.8262332320802841
aF14.961528544756334
aF4.5491994631396082
aF7.7161677619969495
aF5.1569028166497333
aF6.7676936354254629
aF4.4265973211990968
aF12.543604061303725
aF4.0112931377977432
aF5.0717864449682111
aF9.9666124397532059
aF5.2762911060067097
aF4.8661659449460757
aF6.3015603260671611
aF8.1373396405320548
aF4.9956516301023868
aF5.2221067019814278
aF4.293202418790699
aF6.5876816876454996
aF5.0013500617612863
aF4.3732764707610485
aF4.4146734907323832
aF5.4726370122411652
aF23.204874908879908
aF8.0656843422717301
aF5.5806943508611084
aF5.6058425820759794
aF6.886122000471147
aF4.6038709180454731
aF5.4388635148710591
aF5.4069665034170669
aF6.886122000471147
aF5.3462901431101386
aa(lp29
F5.7878211565625861
aF4.8902567988116843
aF4.7638890521392341
aF12.242227090866379
aF7.6926986282375367
aF4.8291943585524848
aF4.8975552559915059
aF8.0441628219821695
aF5.3729427587338137
aF7.0586229104136464
aF6.5686593586377171
aF14.582987003785128
aF6.8820757487310118
aF8.8606688225130767
aF9.1907029768074082
aF6.736200174813554
aF12.789908242443602
aF22.279536433287802
aF8.1187063326772488
aF5.550102230686818
aF4.5856273540644246
aF6.8723593937322391
aF16.370717365196739
aF5.7780252669536907
aF4.0994543018559852
aF13.561151327590501
aF5.6962282302340554
aF4.2314757981511271
aF5.7935283581187988
aF5.2410302878021326
aF4.199524817374666
aF4.0027833145805971
aF4.118308779105206
aF7.924942064700474
aF5.3628364044641543
aF7.144819399761559
aF4.3586847040877359
aF4.4884971308023687
aF9.1092889808335542
aF12.644007325939782
aF8.9711227603208386
aF4.8402801754371438
aF7.4496561889743447
aF9.4581337593318722
aF7.7030855901857294
aF11.287735756430823
aF13.355815052780315
aF4.6322216735335005
aF5.5010898424074597
aF9.7545852161214324
aF12.236530720058289
aF9.7310534778491444
aF4.2672098912406398
aF6.8280581666232933
aF6.1456761191615303
aF13.369887076750445
aF4.416216957950212
aF8.5677558999864409
aF4.0699513259633591
aF7.4973665303345456
aF6.3697997395846073
aF4.0664708566484506
aF4.7892710973261217
aF5.4095496735024327
aF7.7732672660551572
aF6.4724636105575861
aF19.488179777893482
aF5.5535237645695759
aF4.442728422187745
aF5.366457979521563
aF6.1630746900560496
aF6.7798581932864579
aF6.2054784383639117
aF7.079064704262982
aF16.500790930468341
aF4.9702738258083752
aF12.516102868793041
aF5.5486424827566694
aF5.0520998638677668
aF8.7971079690198764
aF6.2944635888762477
aF7.1823648263530373
aF4.655621847677665
aF6.0197286605080365
aF4.7794665224497237
aF29.787821658598816
aF4.442728422187745
aF4.6719523620822656
aF6.3080984118016374
aF6.2226456895778739
aF4.2991410720945007
aF4.4120789951546113
aF4.6754307049330919
aF6.886122000471147
aF4.3558408888008699
aF4.3665198646054222
aF12.316318558573926
aF4.8014375381962111
aF4.1110725617729997
aF4.8658151059530184
aF4.0177252185128651
aF5.3462901431101386
aF5.1717386216177488
aF4.1979839305485598
aF6.3340459903348076
aF17.457284689536394
aF17.48848826526568
aF6.886122000471147
aF9.7595652683058631
aF4.4626464054129826
aF4.081469319948571
aa(lp30
F8.171551995833596
aF5.1313201609364825
aF7.5620256987428434
aF7.4883446174431239
aF7.2135392203448916
aF6.4386846320687994
aF5.8616654731008566
aF4.5024744787242597
aF18.224442000610352
aF10.17632449273674
aF11.299631139017038
aF6.4936523845519503
aF8.4577922367942335
aF4.2261146397610787
aF5.4949736080409437
aF4.5034601157630139
aF5.2878030685493513
aF4.3396411580441709
aF5.2946818475112813
aF4.1006128614627926
aF4.226238672669723
aF4.0027833145805971
aF8.3919780444776677
aF4.8902377928668415
aF4.8557970713038898
aF5.8531806109161266
aF6.9001533756520885
aF6.325874711475457
aF8.9464542256583712
aF5.5840678319959736
aF4.9242619992769576
aF7.3717440998424166
aF4.7283371261283378
aF6.2638865195872544
aF5.6583432640143059
aF5.5811794640778203
aF15.591481050003804
aF4.1510916574449723
aF7.7708951670326485
aF7.4585366666780857
aF6.2433478991038385
aF5.679449263509639
aF4.8171505744334695
aF5.2177577877612293
aF4.1264447789507699
aF4.4927427761900276
aF5.5541041799617119
aF6.9515793448609884
aF8.9711227603208386
aF4.999536795400175
aF7.4707928749055696
aF4.8664539234657411
aF15.841161904131454
aF5.1365121115390195
aF4.4927427761900276
aF4.118308779105206
aF5.5811794640778203
aF6.4152461402884455
aF8.2960204357787344
aF4.3938394420957252
aF5.3615979605068489
aF4.8450475470606609
aF5.7692746054614474
aF12.105913038801461
aF12.446365650053153
aF6.8280581666232933
aF4.3495235253781743
aF7.9341837861331186
aF9.7310534778491444
aF8.5677558999864409
aF7.3475047555715882
aF4.6963701276173708
aF7.3530675787120927
aF4.0890661737537215
aF12.511089940046165
aF30.491658331354117
aF22.759598884552439
aF4.8201637634764385
aF9.5178355704524051
aF4.0454934864638261
aF4.5818886919473201
aF4.4318838879769267
aF4.4819053370416491
aF6.9447507821391028
aF5.4038194737917991
aF4.1503885512561283
aF13.43190364209725
aF10.404404027367605
aF5.5291906035726477
aF5.1270662798889646
aF6.1795278145595773
aF5.4701694510784478
aF7.7732672660551572
aF6.2475269104455506
aF9.4259156162382567
aF5.9084956803453395
aF4.999506819718107
aF5.2273368638979605
aF7.3234412908608846
aF6.0704652912058918
aF6.22569263520748
aF5.4626533147702645
aF4.4265973211990968
aF7.9322206725754114
aF4.0069295024023575
aF5.1943543178517331
aF5.2388575183354504
aF10.245025316243456
aF9.2739703843788277
aF5.0717864449682111
aF4.4626464054129826
aF4.9457954402573669
aF9.5612200375434497
aF15.448281893154657
aF7.5192477768448782
aF4.6926026400179808
aF11.979355401182644
aF7.7247028781099587
aF5.9665512908301412
aF5.1888366776489505
aF6.0031961004013681
aF6.3980242645413909
aF6.8590754880967921
aF5.1853581132201896
aF7.5656257462193253
aF4.0045353749351591
aa(lp31
F6.6553395024473359
aF14.355719751696682
aF4.4121608818534668
aF5.0710353785848667
aF6.6079593087929425
aF6.2922535324500615
aF4.311579591751638
aF5.2010929900973224
aF4.9533681010702537
aF6.6463783974705741
aF4.4779954144045746
aF5.1850392840687789
aF4.7988025104630765
aF5.2164238744651215
aF17.774549094515038
aF13.034819922222454
aF5.1091844880654662
aF4.3442324102303473
aF4.128130170602077
aF8.8928886166310761
aF4.1638279560338205
aF5.0097010156080017
aF6.4210856144419139
aF18.530135303420955
aF12.343023970173352
aF4.6437438489644478
aF5.4779145112518854
aF4.0748119572813835
aF4.128130170602077
aF10.6317318489331
aF8.8648812614409138
aF20.085129443370519
aF7.3319160279523601
aF4.0705123511610459
aF5.754397375369507
aF5.4643478807143673
aF9.1092889808335542
aF5.9799636755142132
aF6.8280581666232933
aF13.303832170478501
aF12.644295900604178
aF13.1612407849655
aF24.438064651376123
aF4.9702738258083752
aF14.094775057699025
aF6.4643626416173561
aF4.858987499714285
aF9.6497943429868105
aF4.4026895168941849
aF4.5491994631396082
aF4.4890075529857825
aF9.5073046517554189
aF4.1089172090802393
aF4.0112931377977432
aF14.251702090852305
aF17.544640301338724
aF6.74240485624615
aF4.193511886168892
aF4.3546997605824629
aF5.9553973816381927
aF11.863408690411788
aF4.3147326029022111
aF4.0081366447875268
aF8.2861297983354945
aF6.9961685018376158
aF6.2630633099738873
aF7.8434814758923466
aF9.1388383423019945
aF4.4395563810390968
aa(lp32
F4.5654454389682257
aF4.3619324551504519
aF4.2668577255918478
aF7.0117387910308047
aF6.2167635980300986
aF5.0992918496882567
aF7.7463948689160631
aF8.3337057465795752
aF5.6180589823925775
aF4.3468513939200903
aF8.0032268574442327
aF7.5861243801210634
aF10.045505464417417
aF5.5602457575705273
aF4.9125940720586811
aF4.0896056755066468
aF4.6855933294789196
aF8.0483486634546466
aF7.9446842396639639
aF8.0441628219821695
aF4.8760341329809478
aF4.8760341329809478
aF5.5811794640778203
aF10.622531064466346
aF5.8721357566284382
aF21.871486363323207
aF4.7916793227816932
aF5.8176751263277993
aF7.0586229104136464
aF5.9563638587606036
aF9.3726023407796326
aF11.954386858716383
aF6.3200013070401511
aF4.2491286920705988
aF17.609819799003446
aF4.7326581884066599
aF5.384660573616344
aF5.2164238744651215
aF5.2164238744651215
aF4.0439605151012099
aF8.2374271472123333
aF4.3442324102303473
aF12.868570223765005
aF5.2365260653651546
aF17.55831701043499
aF4.199524817374666
aF6.1854144060748695
aF4.9714170734040124
aF4.4802563262174999
aF16.366528544691278
aF4.874738559220539
aF5.3980132158149816
aF4.7916793227816932
aF5.6844440510863308
aF4.3586847040877359
aF4.9125940720586811
aF6.2978751419829386
aF6.2978751419829386
aF4.4707269579044109
aF4.1846985359841256
aF5.4686335009463676
aF5.703310570201694
aF9.4419348942549561
aF7.4888827141540446
aF6.0267662372675943
aF14.543331374714398
aF5.8029880989674325
aF9.5193699849863265
aF8.8921938305719266
aF6.4529688174298911
aF6.7246282506655177
aF4.7999758228216081
aF5.3172910747801581
aF5.8549855799074493
aF7.7767862900315237
aF5.6469120946982514
aF4.3586847040877359
aF4.4307113705679271
aF7.4557876921013531
aF5.1007233020137548
aF5.3184230258939209
aF4.7824953394820326
aF12.918674949568391
aF11.769155805890918
aF5.0367648506652749
aF13.303832170478501
aF9.8037978006298587
aF17.942057460233684
aF6.4777282285159572
aF4.8597096044336467
aF4.5992844521239107
aF4.7824953394820326
aF4.091315675509847
aF6.3592033596711843
aF4.7023849458251474
aF8.8032544650042155
aF4.442728422187745
aF5.8582365514367751
aF10.183112007686852
aF6.0229096675536855
aF4.2422935048261934
aF4.0999266329259854
aF6.1949705983624455
aF5.5217121557690234
aF9.8321447722051047
aF9.8964833695954422
aF6.8877586902445387
aF7.5637707981774023
aF11.148574107781421
aF10.888029516415784
aF8.4362708849419761
aF4.4597869666758356
aF8.7915732844442545
aF6.9538158876261082
aF13.2927675851698
aF4.1111883509603757
aF8.1803944098773318
aF8.6883959610066199
aF4.8214124984066018
aF7.6035466535160054
aF4.2172460443343596
aF5.1592200843700091
aF7.314669800650961
aF6.4064462492537331
aF4.2296782545398983
aF4.8791089552209961
aF15.123542723198014
aF4.4725170560916183
aF5.2266268273894028
aF4.2358717691978782
aF6.8743256760158573
aF8.1440074604972637
aF4.0914128384312392
aF4.1993207242986017
aF6.9882622984517582
aF4.442728422187745
aF5.133626551043406
aF9.8871203181046639
aF4.0326568721761831
aF4.528839091860041
aF4.6530083911959146
aF18.134266741642406
aF7.7932496773742628
aF5.6424544915428214
aF4.5915253285824917
aF6.043019203030525
aF5.5639465642768755
aF6.3731063876184919
aF4.6048504358785749
aF4.4924916591842248
aF5.5348470909177365
aF4.2822646130222282
aF4.5588445191341975
aF6.8021532974761669
aF12.679188640040493
aF7.10872144272426
aa(lp33
F8.4714071151918233
aF6.4936523845519503
aF4.0730304239400112
aF8.4577922367942335
aF7.9628562779503227
aF5.9563638587606036
aF4.2165066385547334
aF4.665000758920911
aF4.5099351187870411
aF5.2878030685493513
aF6.2314938970665992
aF5.8721357566284382
aF4.1945410398015213
aF5.6419180396880222
aF6.8465933938917374
aF26.935058743315537
aF6.0557431969720028
aF4.7988025104630765
aF5.9480561684550111
aF4.3174289472258067
aF4.7283371261283378
aF7.3940489089427786
aF5.2316078277005502
aF6.1538545894426768
aF7.8855930799127094
aF4.0027833145805971
aF4.0384477020309504
aF4.9605760552741387
aF5.2840693368559215
aF4.6245888999588942
aF4.4884971308023687
aF4.5162596686161489
aF4.2647988333864362
aF10.347215059302485
aF4.4927427761900276
aF7.3600812130516005
aF4.0605794692975365
aF5.4758977426631432
aF4.608870823653632
aF7.7030855901857294
aF9.7545852161214324
aF5.0367648506652749
aF12.105913038801461
aF4.632497027481719
aF12.446365650053153
aF6.8280581666232933
aF6.3568493985476664
aF9.0961551178714828
aF4.4884971308023687
aF6.2978751419829386
aF7.0733096149052486
aF7.9607536750290961
aF4.8597096044336467
aF4.6437438489644478
aF5.0403164430004495
aF5.1951157095453908
aF12.522735721142666
aF20.109267254679352
aF6.1630746900560496
aF6.7798581932864579
aF12.105913038801461
aF9.5178355704524051
aF4.7283012053491831
aF5.5811794640778203
aF16.030632492670016
aF5.3615979605068489
aF7.0853727453206332
aF6.993229675298835
aF16.124885444053248
aF5.881022717811291
aF4.180952722615781
aF8.0916502895939928
aF5.9961579301232462
aF4.1846985359841256
aF7.1608374493010558
aF4.3817434320040718
aF4.293202418790699
aF7.5743286985209295
aF32.196468227128577
aF15.543452881444864
aF4.0890661737537215
aF6.0244545139747032
aF26.493642598079241
aF4.3535392326843407
aF5.5511976197032453
aF8.2960204357787344
aF5.7989043682845232
aF6.8150365136412958
aF5.4626533147702645
aF4.2296782545398983
aF11.217868844922172
aF7.049917526693946
aF7.4062516809640044
aF4.4626464054129826
aF4.4265973211990968
aF6.886122000471147
aF4.0842481769057173
aF6.5461772264334286
aF5.3005210439048369
aF7.9771429892905985
aF6.9197438474935353
aF11.29462760628806
aa(lp34
F7.5180397881788537
aF4.9354359239919035
aF4.3753668764308529
aF5.2365260653651546
aF4.6082466368281843
aF4.7625306141517942
aF6.8723593937322391
aF9.8629648701516004
aF4.5964917074267078
aF8.8266979474097731
aF5.8531806109161266
aF4.8760341329809478
aF4.0322328341375737
aF4.862378761228257
aF5.1059060672891405
aF8.4714071151918233
aF4.0945677411598354
aF4.0994543018559852
aF5.0775841011181058
aF5.5242553266149343
aF5.2410420130165249
aF5.6461154934401634
aF6.2427204746553429
aF4.2314757981511271
aF4.2165066385547334
aF4.8740429752426024
aF13.869211079230269
aF7.8840124607187079
aF4.3634469019353048
aF4.1874820341532768
aF7.1026907808309403
aF6.6264439141603333
aF4.0299751108088628
aF5.679449263509639
aF7.7732672660551572
aF6.678094519705013
aF4.9948975398082496
aF9.3210675174413566
aF5.1091844880654662
aF5.0096022617149529
aF4.1032501384262119
aF12.407445359834981
aF22.630564412546761
aF4.6798075122825225
aF9.4419348942549561
aF7.7030855901857294
aF4.8450475470606609
aF5.1365121115390195
aF6.2072110470225823
aF7.497849187357275
aF9.9730367046047803
aF4.4026895168941849
aF5.0937936915739925
aF4.8597096044336467
aF6.364791266058468
aF4.5992844521239107
aF7.4973665303345456
aF7.3766177640435693
aF7.0668738515131668
aF5.7717631769132911
aF12.105913038801461
aF5.1179405939898572
aF7.7030855901857294
aF4.8887602563337751
aF5.8450822103178517
aF4.528070561675321
aF4.0807810243372558
aF4.1090406553768446
aF18.0554574184616
aF8.162362746741195
aF7.8266576098954932
aF7.9341837861331186
aF4.5491994631396082
aF4.5397194651501707
aF4.4666333266762592
aF10.678065098967764
aF4.4878193955018162
aF6.2226456895778739
aF5.6516631445013132
aF11.836811546178126
aF10.032567826300024
aF4.139569437947884
aF8.0219757454273122
aF5.1723673000961412
aF6.5069101733688228
aF4.2048218094842937
aF15.527556539472403
aF27.783715768270369
aF6.0726050352703709
aF4.0045353749351591
aa(lp35
F6.860521270494921
aF5.89016872238264
aF16.370717365196739
aF5.1058094172718711
aF9.6411434650255217
aF7.5747488441779751
aF4.5099351187870411
aF5.0469763864547303
aF6.789347971283604
aF5.1424276285463435
aF6.1133703449500274
aF11.116775405552282
aF5.5489142410905146
aF7.3277213543843516
aF5.147437360982309
aF10.043512117983155
aF4.9714170734040124
aF4.3174289472258067
aF5.33224087082057
aF6.9505210414814371
aF16.894338403461603
aF4.1264447789507699
aF4.0605794692975365
aF10.388741634977634
aF5.7717631769132911
aF6.2075505973316112
aF4.8001849420227529
aF27.47505661842267
aF4.3764744374217344
aF8.1671881710830831
aF6.1305566726957181
aF4.1029440669670194
aF7.6065387535422531
aF4.091315675509847
aF5.4095496735024327
aF6.841411796665251
aF12.648096437261614
aF4.4890168787155353
aF4.2311369271704251
aF7.2906582143595386
aF5.5010898424074597
aF4.859026481268458
aF6.5415873401902687
aF9.7481962656968761
aF7.4945222909409352
aF6.8567182697181401
aF11.24350295755751
aF4.8947829254965143
aF8.2147054095184444
aF4.2557655842769577
aF6.7369205889790038
aF4.5491994631396082
aF6.7238063334092146
aF7.5131144808216455
aF7.6486417492629251
aF5.6396255377097049
aF4.1984331527484642
aF4.1593190959305844
aF5.8029880989674325
aF8.4183790221861159
aF4.1643259105053971
aF9.9062670339762207
aF6.886122000471147
aF5.4361168938089293
aF13.662934048532335
aF4.7011383133744005
aF7.1325941759125371
aF5.5517492170092737
aF6.5876816876454996
aF9.3575689417554102
aF6.1757855034259066
aF7.8036866939614953
aF5.5639465642768755
aF5.6781500366027728
aF44.615063435572353
aF5.2266268273894028
aF4.7357934906745598
aF4.456296694316336
aF12.515001022360941
aF5.4069665034170669
aF4.6038709180454731
aa(lp36
F6.6553395024473359
aF4.143311775021985
aF7.924942064700474
aF4.4656867696169229
aF4.4369542531224511
aF4.8813427740213022
aF6.5099086288850856
aF4.5099351187870411
aF5.2093827533044958
aF5.3729427587338137
aF7.0586229104136464
aF9.9726431138902143
aF6.980326492825057
aF5.7643919143868771
aF5.103254589767694
aF4.7370575454456159
aF5.2093827533044958
aF4.0437216324818586
aF5.1091844880654662
aF5.7664526273655579
aF8.9464542256583712
aF10.394047918094572
aF4.2792080277469751
aF4.8403474968836093
aF6.8043077732404811
aF7.7767862900315237
aF6.4377786798299752
aF4.0027833145805971
aF8.4238422323755771
aF8.9008833362873929
aF8.3874629252567132
aF5.1424276285463435
aF4.7933939137693358
aF4.2647988333864362
aF4.6524757889195669
aF6.7676936354254629
aF4.0605794692975365
aF6.5153052886228977
aF4.0596764389254503
aF8.4930688977333908
aF4.9351230900225858
aF7.7030855901857294
aF4.5850247544526752
aF9.8919903748773521
aF6.6814556450148075
aF15.651200577920719
aF4.0232719633242837
aF8.137491554357922
aF9.1306487333891191
aF5.2388575183354504
aF4.1036615827558043
aF4.442728422187745
aF5.4886469463916114
aF14.455619157622181
aF9.5178355704524051
aF7.9341837861331186
aF4.5467837746161592
aF5.7517626487845916
aF5.4095496735024327
aF7.7732672660551572
aF8.8032544650042155
aF5.0403164430004495
aF5.0593819551837367
aF7.8594777692711659
aF6.174790415555151
aF4.0914128384312392
aF13.145342647700687
aF4.5479378915238726
aF4.6054618119159727
aF4.0876782568435317
aF13.492625701584217
aF10.058141681231817
aF4.3140469762820288
aF4.3900959419445797
aF6.8743256760158573
aF9.6366606449933698
aF5.1048863821128521
aF4.2991410720945007
aF12.446365650053153
aF6.8280581666232933
aF5.9549598835382653
aF4.5704844563380078
aF4.7050406299163114
aF4.6048504358785749
aF4.2695899310166538
aF10.402303501088305
aF4.4265973211990968
aF6.074043431097067
aF5.8057368907054467
aF4.1411092163484682
aF4.2584705788213881
aF7.5557467374563494
aa(lp37
F6.5030442585299113
aF7.0247196905237459
aF10.829011572647353
aF5.1905884048840907
aF14.237353499465144
aF8.5003296349482582
aF5.2010929900973224
aF9.3775190869153207
aF12.855856809484322
aF6.2427204746553429
aF7.8562292406265541
aF8.4179168436692322
aF4.1638279560338205
aF7.4747232604016176
aF4.0933894961509623
aF7.4735523666595753
aF14.337190718394233
aF10.968645384891687
aF4.8458111440819778
aF4.9549141654530757
aF4.8520792997702813
aF13.1612407849655
aF6.7238063334092146
aF8.3180528599225028
aF4.9847362611548931
aF6.3592033596711843
aF4.1878435181087639
aF7.897362289555133
aF4.8651338728261919
aF5.6970435086849989
aF4.1488668961546296
aF5.1825310453498616
aF6.8743256760158573
aF9.8871203181046639
aF4.6751439784181628
aF4.8064798530866
aF6.627015953844241
aF6.6197748136267336
aa(lp38
F4.1230309319523997
aF4.69484820058865
aF5.2594372976722781
aF4.567580537377637
aF5.3371863923030674
aF14.675562217146137
aF4.7625306141517942
aF4.1399957643606768
aF6.8075738191873256
aF4.4121608818534668
aF14.237353499465144
aF4.2612325502330535
aF5.6180589823925775
aF4.5964917074267078
aF7.0077741465709664
aF4.8509882649985343
aF4.3894323313626842
aF4.311579591751638
aF4.143311775021985
aF7.924942064700474
aF4.6855933294789196
aF18.970817710916776
aF4.8291943585524848
aF8.0795111234932335
aF4.0572040107472418
aF4.8760341329809478
aF4.0322328341375737
aF4.4917247372841302
aF11.478288662189669
aF6.7143179778004338
aF5.6180589823925775
aF7.4080865995669285
aF4.2261146397610787
aF5.8858196989244078
aF4.5099351187870411
aF5.1091844880654662
aF8.01531975548302
aF6.9341569736299817
aF7.3717440998424166
aF4.128130170602077
aF4.4779954144045746
aF5.8204766739120757
aF13.402399234864987
aF6.3516138471435113
aF4.9727891217170281
aF4.213813071994025
aF5.2077053077018931
aF7.4888827141540446
aF9.0444991962941668
aF4.7824953394820326
aF12.402669215945352
aF4.6119455433135528
aF6.2167635980300986
aF9.8874075405988009
aF4.467351529016959
aF4.467351529016959
aF5.4779145112518854
aF5.4779145112518854
aF5.2410420130165249
aF5.5746079976967167
aF9.7308387651019359
aF4.6044422128539395
aF5.4274293239956535
aF4.1692526318976277
aF18.530135303420955
aF12.343023970173352
aF8.8169085104263303
aF12.695010736201453
aF7.4496561889743447
aF5.0715757375635917
aF5.703310570201694
aF7.7767862900315237
aF11.403073538762005
aF4.624369645534852
aF4.1425415113838042
aF7.3831464232013637
aF24.809388355889141
aF16.071378307708002
aF6.1814556198010706
aF5.7719533515308825
aF4.7824953394820326
aF7.5855865210367455
aF7.5855865210367455
aF6.4324019299149295
aF7.9944324790802455
aF4.0301656210890471
aF8.4830406149366659
aF4.091315675509847
aF10.021959807180281
aF4.2849239939567383
aF4.442728422187745
aF13.581676475084919
aF8.0001659263091511
aF4.3399608791039004
aF8.1033522323761531
aF7.3271991896652597
aF4.091315675509847
aF6.725287098374622
aF6.2423601433351834
aF6.0720427972701998
aF7.5306005507827081
aF5.7983183391368627
aF4.3941393805371227
aF4.2048218094842937
aF5.0946009096318789
aF4.5696210216310504
aF7.8036866939614953
aF4.9490256514912971
aF8.7249243120220683
aF4.2896645666434399
aF4.859026481268458
aF6.0311280076651812
aF5.953667386238493
aF5.8614015944682194
aF8.9985520354517519
aF4.06962127667774
aF7.5656257462193253
aF6.073818193748501
aF4.7098092023284295
aF4.0270883468276448
aF6.3080984118016374
aF4.3728564451837997
aF4.2355984132357918
aF4.0876782568435317
aF4.0488875794497119
aF4.9224895736562928
aF6.1973342258985156
aF4.0994539505690355
aF4.0255352146859735
aF4.7375417753171192
aF4.366738171227035
aF4.7946011392946133
aF5.6518781722775771
aF10.547203833257576
aF5.0717864449682111
aF5.6387307286972543
aF5.8850804979831217
aF4.2172460443343596
aF5.4361168938089293
aF9.9666124397532059
aF17.544640301338724
aF7.314669800650961
aF8.1431292857307866
aF12.854985972472619
aF4.4254977808660954
aF4.1696061159668574
aF5.9549598835382653
aF7.4227257008019336
aF4.7011720346490762
aF6.74240485624615
aF8.4488367887222182
aF5.3817369404764008
aF4.2048218094842937
aF9.6716396272595091
aF4.7593595992280129
aF5.4069665034170669
aF9.6667844347921061
aa(lp39
F5.3696461993938769
aF4.8485569188937347
aF4.455343298166369
aF11.948277358172902
aF5.1058094172718711
aF4.8760341329809478
aF14.052791914566923
aF6.9515793448609884
aF6.3465527667563109
aF6.2252274146505613
aF4.1660111807326174
aF4.8904889463351964
aF21.260422885043965
aF5.4923320834230589
aF4.1114513402478678
aF5.1911596908747555
aF6.5789868606079267
aF19.234722225710428
aF9.2937879572406814
aF13.643394094845775
aF4.8664539234657411
aF4.3134304818682683
aF5.0419094352038343
aF8.7725331651130602
aF7.924942064700474
aF5.9717788557159963
aF7.4022216754218135
aF4.7824953394820326
aF16.00954070566587
aF5.366457979521563
aF10.436084731236576
aF8.6695542610594103
aF5.1736381682988863
aF5.1569028166497333
aF5.1514041529301693
aF5.333457938842173
aF7.4905492588969835
aF4.5992844521239107
aF5.3628364044641543
aF4.0664708566484506
aF6.7798581932864579
aF7.7030855901857294
aF5.0367648506652749
aF4.8809974141778412
aF5.7530808316956836
aF6.5926321271865405
aF6.1709922087224598
aF4.3535392326843407
aF4.1878435181087639
aF5.1921752323411567
aF4.4063507362159697
aF10.880320533472954
aF5.7124639769147763
aF15.712122382533266
aF4.2599336495161282
aF8.0484303549061487
aF28.465815582580888
aa(lp40
F4.8813427740213022
aF4.4369542531224511
aF11.691952539379614
aF4.2165137483567889
aF7.838598598455242
aF5.7780252669536907
aF6.9001533756520885
aF4.2165066385547334
aF6.2167635980300986
aF4.3757784320926092
aF5.6583432640143059
aF8.2023580834161294
aF4.8458111440819778
aF4.4884971308023687
aF4.624369645534852
aF7.7030855901857294
aF6.3696869993563325
aF4.3889258600720211
aF7.409766583967901
aF5.5746079976967167
aF5.1270662798889646
aF7.4747232604016176
aF4.9192480679994759
aF13.2927675851698
aF4.1984331527484642
aF4.1593190959305844
aF4.6075932084122257
aF5.1569028166497333
aF14.331709783613395
aF4.3900959419445797
aF8.2425871156193296
aF13.694242299313728
aF6.453999366541197
aF4.7251802533159832
aF5.7682422178952848
aF7.5557467374563494
aa(lp41
F5.1412000808840048
aF22.710970588084663
aF4.511701628514075
aF5.8858196989244078
aF5.8086459219450717
aF10.19019139046884
aF10.194728381414336
aF10.435356792127919
aF5.7775798717756004
aF4.3619324551504519
aF5.4923320834230589
aF6.8700639303250171
aF4.1114513402478678
aF6.7643598665232645
aF5.1091844880654662
aF5.3016842485093747
aF7.4735523666595753
aF4.1415293082095559
aF6.6461266715356828
aF4.2337284022676869
aF4.5844484318147352
aF8.2068552146617009
aF5.5779339869924733
aF4.4884971308023687
aF16.071378307708002
aF7.9147895066676135
aF4.091315675509847
aF7.7320448041345102
aF8.5569999067561184
aF6.7798581932864579
aF16.940860434892073
aF15.503728993135509
aF4.6499133133350874
aF5.5217121557690234
aF7.1325941759125371
aF5.6954740626579081
aF4.5322601101727678
aF5.0593819551837367
aF17.913413592794456
aF5.2164238744651215
aF4.6530083911959146
aF5.6518781722775771
aF8.5962891006268478
aF4.6075932084122257
aF7.3295328308982874
aF10.416298697478716
aF7.4765729189899872
aF4.2048218094842937
aF4.0064719732643539
aF5.8307842549761659
aF4.3522316307435887
aF7.0663952558384011
aF8.1440074604972637
aa(lp42
F5.9126955511644326
aF5.2410420130165249
aF5.0315748632384398
aF10.680396418861179
aF4.8485569188937347
aF4.4675381458152117
aF4.665000758920911
aF5.7780252669536907
aF5.6003898823373675
aF5.4007753719429843
aF7.7767862900315237
aF5.2061826042705093
aF5.1395340085846257
aF4.2116456764338359
aF4.3694187118405523
aF5.5213219079158478
aF5.5541041799617119
aF5.1576092329662515
aF4.5673078495245285
aF5.2453927953382617
aF4.6524757889195669
aF8.8266979474097731
aF5.5811794640778203
aF7.6985945537267106
aF10.506571327678245
aF4.4884971308023687
aF4.4007323724372895
aF7.9186320966142603
aF16.122756098860393
aF4.7940827661012264
aF4.4425562511123857
aF4.0987167078016
aF6.7798581932864579
aF6.8043077732404811
aF4.4597869666758356
aF5.1633963179608973
aF5.862605321802306
aF6.4375653596513871
aF6.6879416648957246
aF10.499401178307945
aF4.4425562511123857
aF5.3827962750684328
aF8.0219757454273122
aF5.8325462303326248
aF6.8623219636882169
aF4.0012830811606506
aF4.2564163662942001
aF14.331709783613395
aF5.6424544915428214
aF6.4278793626095734
aF6.74240485624615
aF4.7251802533159832
aF8.0656843422717301
aF7.5557467374563494
aF6.0726050352703709
aa(lp43
F4.9556111139956798
aF6.6438669252148657
aF4.1065356617413533
aF4.1967768646413948
aF4.1945410398015213
aF4.6855933294789196
aF4.0572040107472418
aF5.3419600822947331
aF7.0234588530027509
aF18.455582644391725
aF5.4936993181844453
aF7.2184521374258281
aF4.5806372197126279
aF8.2023580834161294
aF7.3296121527624649
aF4.9917304222286276
aF5.2079927576888165
aF4.6867823797873349
aF5.7265256133830675
aF5.33224087082057
aF9.3727378495378133
aF4.0358988105994342
aF4.2763675735520366
aF6.2072110470225823
aF9.8432541364204909
aF4.3054226177291071
aF6.2978751419829386
aF5.1389001340320597
aF7.3583535911509408
aF4.721431244824231
aF7.0185270650435427
aF8.4830406149366659
aF5.5816091042249383
aF5.862605321802306
aF4.6730662991319321
aF16.940860434892073
aF7.9341837861331186
aF7.1522946346706746
aF5.4095496735024327
aF5.5217121557690234
aF5.0593819551837367
aF19.093504500316556
aF4.1782933004539871
aF9.8321447722051047
aF6.0987864922468233
aF7.4945222909409352
aF4.0655755574326804
aF7.4784109923610593
aF9.5141077514261241
aF4.3535392326843407
aF4.7514198432500194
aF4.7011383133744005
aF4.0064719732643539
aF4.9102581483371353
aF6.0244545139747032
aF26.493642598079241
aF5.9153947725413474
aF4.0069295024023575
aF11.836811546178126
aF15.139975257781174
aa(lp44
F10.829011572647353
aF5.1946023766782048
aF6.8723593937322391
aF7.2538317970406752
aF5.1576092329662515
aF7.1075505798213783
aF5.2164238744651215
aF4.1846985359841256
aF17.408597766236625
aF13.034819922222454
aF7.4888827141540446
aF5.7265256133830675
aF4.2116740306644687
aF4.6635500982866773
aF6.9124650197933164
aF4.0546036346956669
aF6.5491265057849581
aF7.1818773636985105
aF4.5992844521239107
aF6.5517312047609977
aF4.118308779105206
aF7.900269916680017
aF8.0001659263091511
aF5.6954740626579081
aF4.5699012542727218
aF8.1373396405320548
aF6.8828968469835843
aF5.6253136812076932
aF4.9403546264393849
aF5.9734512169628786
aF4.6048504358785749
aF28.465815582580888
aF5.9485236715133709
aa(lp45
F7.8922095705448925
aF4.5518976349965712
aF6.4270398471750809
aF16.770790641823325
aF7.1448908015841113
aF4.4121608818534668
aF6.8723593937322391
aF6.8075738191873256
aF4.709600276118465
aF4.802106249462696
aF9.6411434650255217
aF15.430186466538643
aF5.1091844880654662
aF5.3016842485093747
aF7.2546899136150742
aF21.260422885043965
aF11.478288662189669
aF4.3938394420957252
aF4.3619324551504519
aF4.0557625708001694
aF4.0748119572813835
aF4.128130170602077
aF4.2116740306644687
aF7.094164040371794
aF5.8029880989674325
aF4.3134304818682683
aF4.0914128384312392
aF9.8542159307746573
aF6.9132280855096013
aF7.7767862900315237
aF4.9798393787842201
aF8.1674660451340024
aF4.1692526318976277
aF8.0009765418250112
aF5.366457979521563
aF4.8597096044336467
aF6.364791266058468
aF4.1681323873796501
aF5.7257529628640498
aF5.7520985720860978
aF4.3506016883219338
aF4.091315675509847
aF16.248590672570899
aF5.4667285573392519
aF7.5637707981774023
aF4.8979675878546605
aF7.9341837861331186
aF4.2187129466323796
aF7.6035466535160054
aF4.4666333266762592
aF12.486453051588647
aF4.8820182514795221
aF4.9727891217170281
aF5.0717864449682111
aF4.9412047359442397
aF13.315004992481164
aF4.0994539505690355
aF4.8078431870224723
aF4.8078431870224723
aF6.7170713624269069
aF7.8594777692711659
aF4.1089172090802393
aF4.0914128384312392
aF12.854985972472619
aa(lp46
F16.370717365196739
aF6.4364285456403394
aF4.1213884227790061
aF4.2165066385547334
aF4.0322328341375737
aF13.208008239989521
aF11.800503344200152
aF4.5099351187870411
aF5.7775798717756004
aF5.2093827533044958
aF9.4382872452184241
aF4.1114513402478678
aF8.01531975548302
aF5.6962282302340554
aF4.3174289472258067
aF4.1945410398015213
aF4.455343298166369
aF5.1850392840687789
aF7.4888827141540446
aF4.1095633815179724
aF5.5242553266149343
aF4.835827558894124
aF5.1091844880654662
aF5.8908851996151181
aF7.96617638314234
aF7.2787514673933487
aF4.3889258600720211
aF9.0961551178714828
aF4.7784938386339348
aF4.5818886919473201
aF6.2452471350827174
aF17.336141620604252
aF5.5213219079158478
aF4.3522316307435887
aF7.924942064700474
aF4.1752006691191639
aF4.9702738258083752
aF4.1425415113838042
aF4.0664708566484506
aF5.3823192636926933
aF4.7833393791034169
aF8.1282778146994659
aF4.609896808654419
aF6.7441965735092708
aF9.8919903748773521
aF5.0279543562826063
aF6.3568493985476664
aF5.7187178056539807
aF4.1740779315134198
aF4.2337284022676869
aF5.1736381682988863
aF7.3234412908608846
aF5.7293805872347967
aF4.5078335623677503
aF11.08196834562554
aF4.359335373189829
aF5.1328496080084136
aF5.0245629886407812
aF4.0664708566484506
aF5.3383380993991238
aF5.0367648506652749
aF5.0850099719132942
aF12.937002364551645
aF4.9847362611548931
aF9.1092889808335542
aF7.7030855901857294
aF4.0335794956708391
aF4.2896645666434399
aF5.4028149776881662
aF6.2674422989397698
aF4.1916106245660885
aF7.5306005507827081
aF8.1781327400722716
aF7.6341788277095617
aF4.8809974141778412
aF5.2321898939925404
aF7.8036866939614953
aF4.0664708566484506
aF9.0193686476502677
aF8.7249243120220683
aF4.9920289538327083
aF6.7717934147348444
aF7.3254409586550508
aF6.5926321271865405
aF5.2273368638979605
aF7.3234412908608846
aF6.5272889799149709
aF9.5754870203832638
aF4.3900959419445797
aF7.6341788277095617
aF6.9197438474935353
aF4.9403546264393849
aF6.8043077732404811
aF8.100648695451369
aF6.8623219636882169
aF4.6530083911959146
aF4.2184231185231127
aF8.0635370909097901
aF4.7011720346490762
aF12.59953761774922
aF4.1388830950268982
aF4.1857238792349847
aF8.1364578558605274
aF6.6314692175851633
aF5.2762911060067097
aF5.9153947725413474
aF5.0312174668620671
aF4.6038709180454731
aa(lp47
F5.8796613606732606
aF4.5735207199803165
aF6.192586623790433
aF8.293161505061299
aF9.6411434650255217
aF6.2167635980300986
aF6.8572477302838948
aF4.7326581884066599
aF8.4577922367942335
aF4.1095633815179724
aF10.482701111671517
aF7.3940489089427786
aF7.4080865995669285
aF4.4223124355576076
aF4.0494161966554145
aF4.1114513402478678
aF6.672153367331866
aF4.5510369014340455
aF4.3694187118405523
aF4.8291943585524848
aF7.96617638314234
aF5.0563849117367496
aF4.1730395754949541
aF8.1629341043115282
aF12.789908242443602
aF7.7030855901857294
aF4.6524757889195669
aF7.24474427950814
aF4.1740779315134198
aF4.0358988105994342
aF6.8280581666232933
aF7.5636418441964537
aF5.7595957799436235
aF10.937633550132688
aF4.283845993365496
aF4.8597096044336467
aF4.6245888999588942
aF7.7320448041345102
aF4.4477484601576727
aF5.5811794640778203
aF10.215995823731731
aF5.4667285573392519
aF9.1228028327171273
aF12.516102868793041
aF7.2123144623315234
aF7.4905492588969835
aF5.1844234717412547
aF6.7915331141023216
aF6.0197286605080365
aF6.4064462492537331
aF6.7020772574063017
aF8.8085326359299838
aF4.3522316307435887
aF7.5557467374563494
aF4.0069295024023575
aF5.6128446997670522
aF4.0912567671742863
aF5.1623059810336684
aa(lp48
F8.922675384823048
aF6.6497039208146589
aF5.0315748632384398
aF5.1412000808840048
aF5.550102230686818
aF4.0399895330865263
aF5.8531806109161266
aF4.2334089936332475
aF11.016316796990139
aF6.1133703449500274
aF4.4917247372841302
aF4.4223124355576076
aF5.4779145112518854
aF5.1091844880654662
aF4.1846985359841256
aF13.228882606723474
aF5.810527076461625
aF8.1970129309100486
aF12.407445359834981
aF7.7071748832822005
aF4.3134304818682683
aF15.317899980369802
aF11.860900548726725
aF8.6111045374838451
aF4.0664708566484506
aF4.8937541541965288
aF7.1818773636985105
aF13.842461685845237
aF5.5746079976967167
aF4.3535392326843407
aF4.8597096044336467
aF7.2509829050610364
aF4.0780382987905606
aF5.852156474846538
aF5.810527076461625
aF7.1522946346706746
aF12.832047510777556
aF4.2695899310166538
aF6.4893065159959633
aF11.237300358692259
aF5.0367648506652749
aF7.900269916680017
aF8.6066005210018037
aF11.992171068776244
aF11.771859726835805
aF4.9166784168074571
aF8.5067256117603023
aF4.0890661737537215
aF10.475881751435494
aF5.7989043682845232
aF7.1575018723953718
aF4.3098512709725725
aF4.438666955049527
aF4.6048504358785749
aF8.5414999048286973
aF4.1409642074842639
aF4.7946011392946133
aF7.8548757231339437
aa(lp49
F7.3563397837148816
aF6.6553395024473359
aF4.05844660837802
aF4.0730304239400112
aF4.2165066385547334
aF5.6366611636263357
aF5.0683093198664579
aF7.4394861221323936
aF5.6583432640143059
aF4.0596764389254503
aF4.0557625708001694
aF4.5099351187870411
aF4.8770817576979937
aF7.2826190907044008
aF4.8001562095703889
aF9.8874075405988009
aF4.6353220404609203
aF4.2334258418284776
aF4.4114750845568445
aF4.1958496350972965
aF4.4477484601576727
aF4.4099035573253218
aF4.6499133133350874
aF6.4925775550437947
aF7.9186320966142603
aF4.383374630919449
aF8.7827021209075795
aF14.767262424864455
aF5.2318744110109208
aF4.8368002279397189
aF4.9166784168074571
aF5.6518781722775771
aF5.5365300306325196
aF4.3419000839956432
aF7.1159891098685364
aF4.442728422187745
aF4.0646500093899363
aF8.584818040755124
aF7.7840281603817374
aF11.863408690411788
aF6.0374068136087402
aF4.4063507362159697
aa(lp50
F7.9791324998593893
aF9.013809991281228
aF5.6180589823925775
aF4.2204923579395714
aF7.1067408375376857
aF4.7933939137693358
aF4.0358988105994342
aF4.0664708566484506
aF7.4022216754218135
aF6.6814556450148075
aF4.6754307049330919
aF7.3102140379926936
aF9.8321447722051047
aF5.6220755423916771
aF5.953667386238493
aF4.1037179770676033
aF4.0301656210890471
aF4.278313866642506
aF9.5141077514261241
aF4.0994539505690355
aF5.0743950140401779
aF5.6217745319513739
aF5.8325462303326248
aF4.0707565694006105
aa(lp51
F5.4244726804889041
aF11.295297261138273
aF8.293161505061299
aF5.7643919143868771
aF5.8086459219450717
aF5.1850392840687789
aF5.1091844880654662
aF8.01531975548302
aF7.3940489089427786
aF7.3954939510976914
aF4.757729720366541
aF4.3757784320926092
aF6.1538545894426768
aF12.65294100947537
aF6.4316540219852953
aF4.2792080277469751
aF6.2460891705279948
aF4.7643366986077211
aF8.4238422323755771
aF8.2227158972165597
aF8.2826867921992289
aF4.0748119572813835
aF4.128130170602077
aF8.1629341043115282
aF9.0169330766482148
aF4.624369645534852
aF21.34353952886454
aF4.4316946170200282
aF4.1796566138876869
aF5.5117205158885767
aF4.1638279560338205
aF4.0358988105994342
aF10.876170039227498
aF4.7833393791034169
aF8.9008833362873929
aF5.7595957799436235
aF4.2116456764338359
aF6.1906059122857187
aF6.7238063334092146
aF4.0935547912343004
aF21.120563966074279
aF5.0933568553422077
aF20.085129443370519
aF5.7520985720860978
aF6.4469116449084112
aF6.7798581932864579
aF5.4678159203027263
aF7.7030855901857294
aF4.0675459975203836
aF4.7940827661012264
aF4.9170907613165298
aF4.118308779105206
aF4.9525912625152806
aF5.5511976197032453
aF17.390151669032804
aF7.900269916680017
aF4.5772545927428325
aF14.17248270071326
aF4.9311722428188629
aF8.0219757454273122
aF4.6075932084122257
aF5.8325462303326248
aF4.442728422187745
aF4.0994539505690355
aF5.8659839008780779
aF13.656290738063163
aF10.12242634391988
aF4.7375417753171192
aF8.0779645093539898
aF5.4361168938089293
aF13.630126041333668
aF8.3837060796505085
aF4.5247370485894436
aF4.9519004386107888
aF4.5322782133202963
aF5.4401395872758371
aF4.100479514797172
aa(lp52
F7.3563397837148816
aF4.3589700858207401
aF15.996073530915538
aF6.4263446184562838
aF5.1946023766782048
aF4.2165834300105303
aF4.1213884227790061
aF4.3111057668642729
aF4.0322328341375737
aF15.430186466538643
aF10.084373652501554
aF5.065755036963111
aF4.3522316307435887
aF7.4888827141540446
aF4.3134304818682683
aF5.33224087082057
aF4.0945677411598354
aF5.0775841011181058
aF5.0143371886506394
aF4.1638279560338205
aF6.9124650197933164
aF6.0081736035820299
aF5.4779145112518854
aF5.0367648506652749
aF6.0197286605080365
aF5.1354404139908425
aF6.4923821095436836
aF5.4759585076056538
aF6.7238063334092146
aF6.0229096675536855
aF10.40369506622973
aF6.734359810243518
aF5.0367648506652749
aF6.852319174906313
aF5.8450822103178517
aF5.4563819236076583
aF16.248590672570899
aF6.268365481975664
aF4.6090286783569017
aF6.8222789855902022
aF4.1054700348268369
aF4.4026895168941849
aF4.4205459613299816
aF5.0604237842819941
aF4.5247370485894436
aF5.1774876364836331
aF4.2932406266262131
aF6.2475269104455506
aF5.0717864449682111
aF6.8828968469835843
aF4.8820182514795221
aF4.5247370485894436
aF4.7375417753171192
aF4.4187884280714584
aa(lp53
F4.4724471542008075
aF4.2736622483504902
aF4.6467011287642208
aF4.3589700858207401
aF4.9747644223726297
aF4.7342988114049263
aF4.0027833145805971
aF8.0909412311346713
aF5.7849766959767948
aF4.1959451419951392
aF7.8718775002093935
aF8.2227158972165597
aF5.1091844880654662
aF12.407445359834981
aF7.726604715188671
aF5.1454791644293891
aF4.2204923579395714
aF13.402399234864987
aF4.2422935048261934
aF5.9291134078392247
aF4.1638279560338205
aF13.842461685845237
aF4.5992844521239107
aF5.2340070750871597
aF10.060275553378574
aF4.7061481682582809
aF6.3950906445296454
aF5.4028149776881662
aF6.852319174906313
aF4.6123984948650758
aF4.1916106245660885
aF4.8809974141778412
aF6.1305566726957181
aF4.0323260081583356
aF4.681154593359075
aF9.5754870203832638
aF4.5247370485894436
aF4.588133198805366
aF4.4052233152147835
aF7.8036866939614953
aF4.7029353819093487
aF5.1665048654703014
aF4.6094270074112131
aF4.2584705788213881
aF6.627015953844241
aa(lp54
F5.121101358959848
aF4.4181231439438591
aF4.1945410398015213
aF6.3591522440495822
aF5.9154338096685564
aF8.5003296349482582
aF4.7161020395030846
aF6.3200013070401511
aF4.1114513402478678
aF4.3396411580441709
aF5.7187178056539807
aF8.1629341043115282
aF4.0664690782967341
aF4.0358988105994342
aF5.5541041799617119
aF4.4963655433108016
aF9.1780358333614345
aF5.083627867650435
aF4.4884971308023687
aF11.212569281365859
aF6.1401268652524834
aF7.2942325248312585
aF7.9628562779503227
aF9.3727378495378133
aF4.6530083911959146
aF4.2803613241067069
aF4.6075932084122257
aF4.442728422187745
aF7.1575018723953718
aF7.314669800650961
aF4.6691086102729855
aF9.6716396272595091
aF4.2822646130222282
aF4.1297369159441502
aF5.7898251364992319
aa(lp55
F5.4244726804889041
aF4.4813573264284354
aF5.2594372976722781
aF4.2789128451639442
aF4.5470005867223495
aF4.6082466368281843
aF8.293161505061299
aF4.7342988114049263
aF4.2165066385547334
aF5.0469763864547303
aF4.1730395754949541
aF4.7342988114049263
aF4.802106249462696
aF4.3174289472258067
aF7.726604715188671
aF5.1454791644293891
aF4.6524757889195669
aF4.0358988105994342
aF4.2116740306644687
aF11.116775405552282
aF4.6253557294281222
aF10.691045437786428
aF4.9302619228964772
aF8.0009765418250112
aF16.099772010984434
aF5.366457979521563
aF4.9551785150576428
aF5.3383380993991238
aF8.6066005210018037
aF4.3338893358999826
aF5.953667386238493
aF4.2122960984968429
aF7.6258951426230368
aF4.0335794956708391
aF6.1828016187844668
aF5.1844234717412547
aF4.5581457286531872
aF4.7375417753171192
aa(lp56
F7.2834563412733786
aF7.0234588530027509
aF4.2165066385547334
aF4.4181231439438591
aF8.2707110288140484
aF4.5425014924042575
aF4.8291943585524848
aF5.0563849117367496
aF4.4023907969585423
aF4.235919598711634
aF5.2588209741685805
aF5.2588209741685805
aF4.0358988105994342
aF4.2334258418284776
aF7.7030855901857294
aF4.0168757055893982
aF4.6754307049330919
aF4.3694187118405523
aF4.5539548043435332
aF8.8266979474097731
aF5.7961881624674731
aF7.9629257960484097
aF5.3827962750684328
aF8.2550738382413869
aF6.7020772574063017
aF4.0488875794497119
aF5.1873758633605362
aF4.3900959419445797
aF10.923229361754533
aF4.0994539505690355
aF5.8659839008780779
aF4.7824953394820326
aF4.2184231185231127
aF5.1620939633141063
aF4.1979839305485598
aF8.3775220775093366
aF8.3913482367080263
aa(lp57
F4.1945410398015213
aF8.293161505061299
aF10.19019139046884
aF4.7342988114049263
aF4.0027833145805971
aF5.0146489144133213
aF4.4364099077754986
aF8.5722245733491498
aF5.1514041529301693
aF4.4963655433108016
aF5.4528628650643647
aF4.1959451419951392
aF4.0027833145805971
aF6.7798581932864579
aF4.0087674989547182
aF7.1522946346706746
aF4.7824953394820326
aF4.0664708566484506
aF9.254510964953262
aF4.6273014733580382
aF7.7237062530889204
aF12.522735721142666
aF6.8967169036925142
aF6.6197748136267336
aa(lp58
F7.2834563412733786
aF4.4181231439438591
aF4.1945410398015213
aF7.0234588530027509
aF4.9242619992769576
aF4.2165066385547334
aF4.4223124355576076
aF4.0035656208291499
aF4.9125940720586811
aF4.5425014924042575
aF4.2579390257328171
aF8.8028245373599674
aF4.7833393791034169
aF4.4007323724372895
aF7.686870766370717
aF4.963940876186598
aF4.5078335623677503
aF11.08196834562554
aF4.1906576770755493
aF12.522735721142666
aF6.7798581932864579
aF7.4557876921013531
aF6.4321685031865448
aF5.0278331141648493
aF4.9551785150576428
aF5.2149455851389632
aF6.7915331141023216
aF4.4535767137777782
aF4.442728422187745
aF5.0035602430139718
aF4.0994539505690355
aF5.1723673000961412
aF4.6763839407233121
aF5.6426698788679852
aa(lp59
F4.1566208276715884
aF8.2826867921992289
aF4.2579922288021663
aF5.4643478807143673
aF5.0367648506652749
aF5.4779145112518854
aF9.6298272676465029
aF4.2116740306644687
aF9.9866310693887144
aF4.7886026077258208
aF5.4563819236076583
aF4.7862062893240847
aF4.8809974141778412
aF4.7823911663816716
aF4.6499133133350874
aF7.8264645112513742
aF4.3457344523723407
aa(lp60
F5.4244726804889041
aF6.5459609894698332
aF4.0101950723773072
aF6.8075738191873256
aF4.1213884227790061
aF8.0032268574442327
aF4.1730395754949541
aF7.5747488441779751
aF5.5180735303613346
aF6.4626431908679081
aF5.754397375369507
aF21.34353952886454
aF6.6042195305328733
aF4.7236145396390796
aF5.7617194514207952
aF11.537194379647703
aF4.1613059066914246
aF4.5949106670281168
aF4.2116740306644687
aF6.3892065624969518
aF8.6128979043902802
aF11.622105494362657
aF6.7247920750760528
aF4.9847362611548931
aF4.1054700348268369
aF5.8614015944682194
aF8.6066005210018037
aF4.7946011392946133
aF11.428623608751977
aF9.1092889808335542
aF5.5639465642768755
aF4.0856706364787101
aF4.6048504358785749
aa(lp61
F4.6459937466977204
aF5.0315748632384398
aF5.3641901269146359
aF10.19019139046884
aF4.4318926590138261
aF8.0675507167944005
aF4.1213884227790061
aF6.9341569736299817
aF4.2165066385547334
aF5.7286901210173937
aF4.383374630919449
aF4.0062782020783629
aF4.6253557294281222
aF4.7165105003593366
aF5.2915894918994155
aF5.2210848338623492
aF4.2116740306644687
aF5.0775841011181058
aF5.4779145112518854
aF4.8291943585524848
aF10.307313838486238
aF7.2509829050610364
aF5.6844440510863308
aF9.4004559415216704
aF5.0683093198664579
aF11.814318658133885
aF5.0278331141648493
aF4.7922868890467409
aF4.1579530674273499
aF6.5019730965807696
aF6.852319174906313
aF4.2454475487583494
aF4.4205459613299816
aF4.8155075979789785
aF6.5982167952886215
aF4.046041365471428
aF5.2388575183354504
aF5.0150284646660452
aF4.3856799015025523
aF4.782181822662622
aF4.456296694316336
aF5.2479733027811903
aa(lp62
F4.4223124355576076
aF7.3002635470546835
aF7.924942064700474
aF6.1856651367879465
aF4.9395700476379147
aF5.9098795836586362
aF7.5636418441964537
aF4.3694187118405523
aF5.3628364044641543
aF4.372985442861193
aF9.6239883501036587
aF4.442728422187745
aF5.5511976197032453
aF6.6149593016588142
aF6.4780945337256384
aF4.2695899310166538
aF8.643231375761097
aa(lp63
F5.9664222197408918
aF4.05844660837802
aF4.2579390257328171
aF6.2333567305338846
aF6.2954546564373999
aF6.4822305715669302
aF7.924942064700474
aF5.0015933108357764
aF7.9957057389365787
aF4.9927534854758164
aF4.9111798539533638
aF6.2460891705279948
aF5.2588209741685805
aF8.6632275407149706
aF6.9124650197933164
aF5.0563849117367496
aF5.3172910747801581
aF6.2779182101845095
aF4.9551785150576428
aF4.0358988105994342
aF4.5818886919473201
aF4.3140469762820288
aF6.1456761191615303
aF4.3535392326843407
aF4.9291356160957065
aF4.2541879305585439
aF4.1906576770755493
aF5.0289016099497417
aF9.1092889808335542
aF4.6245888999588942
aF7.7320448041345102
aF10.060275553378574
aF7.1325941759125371
aF4.3817434320040718
aF9.1228028327171273
aF4.1451795944235972
aF6.1538545894426768
aF6.1906059122857187
aF4.3338893358999826
aF5.953667386238493
aF4.5850247544526752
aF6.7238063334092146
aF13.656290738063163
aF4.442728422187745
aF5.2894231210682321
aF4.0012830811606506
aF4.1669767566238249
aF4.5871800486488041
aF5.6424544915428214
aF5.0019149665339313
aF4.5311874015305449
aF7.0303516710423395
aF5.0604237842819941
aF4.2822646130222282
aF6.2389332069526446
aF4.4462371839063053
aa(lp64
F4.5470005867223495
aF5.0015933108357764
aF5.0015933108357764
aF4.0035656208291499
aF4.470251712760998
aF7.7030855901857294
aF6.9124650197933164
aF4.3535392326843407
aF4.0027833145805971
aF4.4597869666758356
aF4.8727648410283457
aF4.5479378915238726
aF5.2750803057136011
aF5.8325462303326248
aF5.8792832650140952
aF8.2217937642123289
aF4.3075212934453475
aa(lp65
F7.4687830192122675
aF5.0284459796308081
aF4.5735207199803165
aF5.0315748632384398
aF4.1213884227790061
aF4.0358988105994342
aF4.0945677411598354
aF4.0358988105994342
aF4.7833393791034169
aF7.883626296481367
aF4.3304484476347795
aF9.8432541364204909
aF4.8291943585524848
aF4.0933894961509623
aF5.1395340085846257
aF4.0027833145805971
aF4.219406133101411
aF16.099772010984434
aF4.0664708566484506
aF4.4420921932558599
aF4.2813518085237146
aF10.019255050670715
aF4.8673461986954578
aF4.3856799015025523
aF4.9120338983151015
aF4.5871800486488041
aa(lp66
F5.9106780673475967
aF4.2334089936332475
aF4.9170907613165298
aF4.1669767566238249
aF5.5117205158885767
aF5.5117205158885767
aF4.9551785150576428
aF5.0110706727874401
aF5.3981803015606857
aF4.9702738258083752
aF4.0323260081583356
aF4.4597869666758356
aF7.9944324790802455
aF5.0953124279364488
aF4.2074699276947314
aF4.2810964608502076
aF4.0391213576264988
aa(lp67
F5.3641901269146359
aF4.2666605168178346
aF4.2968451622013077
aF4.1730395754949541
aF15.430186466538643
aF5.4923320834230589
aF5.4365706505834908
aF4.2116740306644687
aF5.1096039237760351
aF4.0358988105994342
aF5.0563849117367496
aF4.1095633815179724
aF4.5539548043435332
aF4.9291356160957065
aF4.709600276118465
aF4.0805853039898068
aF4.0015045679094783
aF7.3102140379926936
aF4.9386705801647821
aF6.1358546693923124
aF4.9798393787842201
aF5.4563819236076583
aF8.7783539037489788
aF5.4667285573392519
aF6.3239442283591103
aF4.0224379900838017
aF4.1692526318976277
aF4.8727648410283457
aF6.2791552131695951
aF4.6075932084122257
aF4.5479378915238726
aF7.9944324790802455
aF8.6066005210018037
aF4.6499133133350874
aF4.442728422187745
aF4.442728422187745
aF29.063143449326319
aF8.3837060796505085
aF6.5895973819359313
aF8.5972663508146141
aF5.7682422178952848
aF4.2384945573501795
aF4.2878229362303077
aF7.8692238809924504
aa(lp68
F5.7775798717756004
aF4.116227308965037
aF4.1945410398015213
aF5.0015933108357764
aF7.0338218149120433
aF4.8770817576979937
aF7.6985945537267106
aF4.0933894961509623
aF5.4686335009463676
aF4.3535392326843407
aF4.1451795944235972
aF5.1685905175926052
aF5.968640421319833
aF7.5131144808216455
aF4.4991674647402693
aa(lp69
F6.6079593087929425
aF5.3641901269146359
aF5.1946023766782048
aF4.2165066385547334
aF4.2491255541038164
aF5.1850392840687789
aF5.5117205158885767
aF4.7922868890467409
aF5.7717631769132911
aF13.402399234864987
aF5.4779145112518854
aF4.2116740306644687
aF5.4540862801387391
aF5.0367648506652749
aF5.0807121529262389
aF4.7028439990554887
aF5.6518781722775771
aF9.5754870203832638
aF7.6258951426230368
aF26.259157456775839
aF4.139569437947884
aF4.2599336495161282
aF4.6960750995791187
aF4.0335794956708391
aa(lp70
F8.8806932385236053
aF7.5386837337632073
aF4.1181803314670162
aF4.624369645534852
aF5.5541041799617119
aF5.0563849117367496
aF5.8613862688281415
aF4.5850247544526752
aF6.7238063334092146
aF4.4420921932558599
aF5.1633963179608973
aF4.7824953394820326
aF5.2831009853238804
aF7.9186320966142603
aF4.2069199935742745
aF7.2510301772059549
aF10.632715783795732
aF4.2584705788213881
aa(lp71
F5.0992918496882567
aF4.1945410398015213
aF9.8321447722051047
aF5.5117205158885767
aF4.4346786501365898
aF11.212569281365859
aF4.7028439990554887
aF5.7239528624564997
aF4.283845993365496
aF4.9139180060985979
aF5.5994648588792444
aF4.7946011392946133
aa(lp72
F5.0015933108357764
aF4.1958496350972965
aF6.0947468450090696
aF4.5207398299567814
aF4.0856706364787101
aF9.5754870203832638
aa(lp73
F5.0284459796308081
aF4.05844660837802
aF4.2666605168178346
aF4.1213884227790061
aF4.2165066385547334
aF4.4597869666758356
aF4.2803613241067069
aF5.1915902066012478
aF4.5525760705141636
aF7.4498039018237279
aF5.7265256133830675
aF4.4279868082397087
aF9.5178355704524051
aF4.3817434320040718
aF5.8613862688281415
aF6.5982167952886215
aF4.283845993365496
aF5.8530024439440353
aa(lp74
F4.2116740306644687
aF4.9395700476379147
aF4.9291356160957065
aF4.117870978878031
aF4.3522316307435887
aF5.0019149665339313
aa(lp75
F7.4687830192122675
aF10.968645384891687
aF7.1067408375376857
aF5.0563849117367496
aF4.1906576770755493
aF4.987709137861728
aF5.4298812195733888
aF4.6751439784181628
aF5.5949019575689647
aF4.7824953394820326
aF6.2062925709564283
aF6.2062925709564283
aa(lp76
F7.4687830192122675
aF6.3591522440495822
aF5.9154338096685564
aF5.8808667023982384
aF4.5162596686161489
aF5.3827962750684328
aF5.0015933108357764
aF6.9551038030393268
aF4.2579922288021663
aF4.4346786501365898
aF5.7265256133830675
aF4.7643366986077211
aF5.0289016099497417
aF7.1067408375376857
aF6.3892065624969518
aF5.5746079976967167
aF4.7359119769028553
aF5.6138978312231416
aF4.0805853039898068
aF4.1906576770755493
aF4.2792080277469751
aF6.7915331141023216
aF4.987709137861728
aF5.2718986105395231
aF4.5871800486488041
aF5.0094172710439437
aF5.5949019575689647
aF4.9261484724002145
aF4.5871800486488041
aF4.4013312800351212
aF4.3338893358999826
aF4.5887881118036731
aF5.8984195060649505
aa(lp77
F5.0284459796308081
aF4.8696400612089406
aF4.2968451622013077
aF5.3989044763575329
aF15.430186466538643
aF4.9927534854758164
aF4.6835957422924848
aF4.4597869666758356
aF4.0546036346956669
aF4.6075932084122257
aF4.442066289406668
aF4.0552896911894614
aF10.968645384891687
aF4.2116740306644687
aF4.7066006008464143
aF4.3619324551504519
aF5.0775841011181058
aF4.0015045679094783
aF4.8920847859494074
aF10.51948552991017
aF4.3817434320040718
aF4.5568841008666254
aF5.1853747894239177
aF4.7823911663816716
aF4.4099035573253218
aF5.0953124279364488
aF6.3249234060376338
aF4.5871800486488041
aF17.14585202405749
aF7.4557876921013531
aF7.9944324790802455
aF4.5871800486488041
aF4.644170539008428
aF7.9651053649351411
aF4.3338893358999826
aF4.8346889943147744
aF9.6366606449933698
aF5.6690720172413744
aF4.4991674647402693
aF4.6499133133350874
aF5.6426698788679852
aa(lp78
F5.1058094172718711
aF4.852781151804388
aF5.3981803015606857
aF5.5535237645695759
aF4.219406133101411
aF4.0805853039898068
aF4.9302619228964772
aF12.789908242443602
aF4.1290051875928953
aF9.1092889808335542
aF7.1177650951102862
aF9.5754870203832638
aF4.6048504358785749
aa(lp79
F4.5162596686161489
aF4.1669767566238249
aF4.2803613241067069
aF4.0358988105994342
aF5.3827962750684328
aF6.1906059122857187
aF4.2541879305585439
aF4.7066006008464143
aF5.8204766739120757
aF10.51948552991017
aF4.934189055881248
aF4.2122960984968429
aF4.2928989895391396
aF5.5994648588792444
aF4.283845993365496
aF4.9120338983151015
aF5.6516631445013132
aF4.6048504358785749
aa(lp80
F6.4168565790373933
aF4.3535392326843407
aF4.963940876186598
aF4.6499133133350874
aF4.3462502360984843
aF4.1906576770755493
aF4.1451795944235972
aF7.1159891098685364
aF6.074043431097067
aF4.8346889943147744
aa(lp81
F4.1874820341532768
aF6.1807669491631856
aF6.4190461446607259
aF5.3172910747801581
aF5.9098795836586362
aF4.9291356160957065
aF4.1906576770755493
aF4.0027833145805971
aF4.9919083014264203
aF4.3900959419445797
aF5.7898251364992319
aa(lp82
F5.5193239412597137
aF5.8808667023982384
aF4.624369645534852
aF5.4923320834230589
aF6.4190461446607259
aF4.2116740306644687
aF5.7265256133830675
aF5.1633963179608973
aF5.7239528624564997
aF4.9919083014264203
aF5.4319803260254105
aF4.8920847859494074
aF6.0239926322426953
aF6.162607393315227
aF4.5581457286531872
aF4.4099035573253218
aF4.2928989895391396
aF7.0348372620153725
aa(lp83
F4.4346786501365898
aF7.4973665303345456
aF5.7543323989885096
aF13.068275634412307
aF4.6075932084122257
aF4.1352896119978908
aa(lp84
F4.1892170810903053
aF4.1945410398015213
aF4.3462502360984843
aF4.3490141510436366
aF5.9457110531675994
aF5.8057368907054467
aa(lp85
F6.182856703897718
aF4.6075932084122257
aF5.5117205158885767
aF5.0696077096927183
aF4.383374630919449
aF13.830406548395274
aF6.1828016187844668
aF9.6750180590856303
aF4.3338893358999826
aF4.6499133133350874
aa(lp86
F4.0272601099231906
aF4.1945410398015213
aF4.2334089936332475
aF4.9927534854758164
aF4.2780719252506856
aF5.270496687872896
aF6.3892065624969518
aF4.9386705801647821
aF4.3615296947693452
aF8.1948908551060669
aF6.3599192227567869
aF6.4923821095436836
aF4.681154593359075
aF5.6424544915428214
aF4.3338893358999826
aF4.0391213576264988
aF5.8984195060649505
aF6.6197748136267336
aa(lp87
F5.3404337440475231
aF4.1945410398015213
aF4.2334089936332475
aF5.5117205158885767
aF4.4346786501365898
aF4.0087674989547182
aF5.7239528624564997
aF10.51948552991017
aF4.9302619228964772
aF5.4528628650643647
aF4.9492016382529727
aF4.8673461986954578
aF8.1867090118684018
aF15.421553520968075
aF4.7545071516487525
aa(lp88
F4.2192170571775591
aF5.7265256133830675
aF5.0895833748601431
aF5.0015933108357764
aF4.9806611912414613
aF5.1633963179608973
aF6.1538545894426768
aF4.9919083014264203
aF4.3846320966310088
aF4.8022614683335263
aF5.2676700732634458
aF6.4359866377972565
aa(lp89
F6.8075738191873256
aF4.05844660837802
aF6.3591522440495822
aF4.9541368160507915
aF5.5117205158885767
aF5.8416140418454461
aF7.4973665303345456
aF5.5535237645695759
aF5.2210848338623492
aF4.4364099077754986
aF4.8291943585524848
aF6.7915331141023216
aF5.7416457700000336
aF4.2029426389543545
aF12.522735721142666
aF8.1867090118684018
aa(lp90
F5.121101358959848
aF8.8806932385236053
aF5.0015933108357764
aF7.0024476389598007
aF4.3535392326843407
aF4.3817434320040718
aF5.0769535465516853
aF4.2430451853322211
aF5.5949019575689647
aF4.8346889943147744
aa(lp91
F5.8808667023982384
aF4.7745409783024044
aF5.270496687872896
aF6.4255279206096532
aF4.5772545927428325
aF10.51948552991017
aF4.4205459613299816
aF4.6075932084122257
aF10.40369506622973
aF4.9714178849819177
aa(lp92
F5.0078495030681118
aF10.967413188018789
aF4.2579390257328171
aF4.7643366986077211
aF5.0289016099497417
aF4.9256236044536053
aF4.1451795944235972
aF4.1352896119978908
aF5.5949019575689647
aF4.8346889943147744
aa(lp93
F7.4041909694052492
aF6.2252274146505613
aF5.8653518895919774
aF4.4945179774299788
aF5.0015933108357764
aF5.123479282750715
aF5.3903186450488079
aF4.8291943585524848
aF6.518524926205032
aF4.2803613241067069
aF4.284161003810425
aF5.0683093198664579
aF6.1828016187844668
aF6.3918325266677911
aF6.3918325266677911
aF4.7823911663816716
aa(lp94
F4.7824953394820326
aF4.9426100269709821
aF5.9551363564721242
aF4.2780719252506856
aF17.163536400138696
aF4.0805853039898068
aF14.826077275232151
aa(lp95
F4.9927534854758164
aF5.3827962750684328
aF4.6075932084122257
aF8.9420600602997524
aF13.402399234864987
aF11.622105494362657
aF4.7028439990554887
aF4.6048504358785749
aF4.6733112330949211
aF4.6216263559402506
aa(lp96
F5.3827962750684328
aF4.6075932084122257
aF5.0696077096927183
aF5.4528628650643647
aF4.0722509478767934
aF4.5581457286531872
aF8.1867090118684018
aF4.7545071516487525
aa(lp97
F5.8086459219450717
aF4.5772545927428325
aF4.0787314892070299
aF4.3490141510436366
aF4.922042612278517
aF9.5754870203832638
aa(lp98
F4.0062782020783629
aF4.8336613570643578
aF5.9551363564721242
aF10.967413188018789
aF4.6917990922563888
aF4.2192170571775591
aF4.0805853039898068
aF4.6075932084122257
aF6.4359866377972565
aa(lp99
F4.7824953394820326
aF5.7239528624564997
aF10.586915910544022
aF4.3619324551504519
aF4.6499133133350874
aF4.2551350952235465
aF4.6383049171485844
aa(lp100
F5.0289016099497417
aF4.7028439990554887
aF5.123479282750715
aF4.3569694481359722
aF4.0722509478767934
aa(lp101
F6.518524926205032
aa(lp102
F5.9551363564721242
aF4.0609643932510266
aF4.2116740306644687
aF9.8883375443643207
aF8.8585406450994526
aF6.240045636244318
aF4.4584549763177534
aF4.5581457286531872
aa(lp103
F10.967413188018789
aF4.8155075979789785
aF4.6075932084122257
aa(lp104
F4.1730395754949541
aF4.1698142114847947
aF4.1399957643606768
aF4.709600276118465
aF6.1992781877922312
aF4.6075932084122257
aa(lp105
F4.6075932084122257
aF4.6075932084122257
aF4.7762774076114454
aa(lp106
F5.4309629603958953
aF5.0078495030681118
aF5.1853747894239177
aF5.0696077096927183
aF5.021402169938753
aa(lp107
F5.3611212696694679
aF5.6493102452882056
aa(lp108
F4.5760839072883357
aF4.6075932084122257
aF5.5747460731459739
aF4.3490141510436366
aa(lp109
F4.6075932084122257
aF4.6075932084122257
aF4.8022614683335263
aF4.2803613241067069
aF4.3312151401798076
aa(lp110
F4.0805853039898068
aF6.6778265828239753
aF4.3367374636916516
aF4.709600276118465
aF4.5581457286531872
aF5.5949019575689647
aa(lp111
F4.4001858726709031
aF4.7745409783024044
aF4.0945677411598354
aF4.162922546633979
aF4.922042612278517
aF5.4605460413591373
aa(lp112
F4.8359141268346164
aF6.5709441809070341
aa(lp113
F6.6149593016588142
aa(lp114
a(lp115
a(lp116
F7.4440023327368721
aF6.2427204746553429
aF4.6075932084122257
aF6.8495731228179011
aF9.1917792122778508
aa(lp117
F4.6075932084122257
aF6.9671017295463002
aF5.0146489144133213
aa(lp118
F4.383374630919449
aF4.284161003810425
aa(lp119
F4.6075932084122257
aF4.2551350952235465
aF4.3312151401798076
aF4.6499133133350874
aa(lp120
F4.0609643932510266
aF5.5468652867977823
aF4.9395700476379147
aF5.8086459219450717
aF4.709600276118465
aa(lp121
F6.3591522440495822
aF4.1474891374466409
aF5.8984195060649505
aa(lp122
F4.4001858726709031
aF5.3827962750684328
aF4.4346786501365898
aF5.0770823076128551
aF4.3490141510436366
aF4.6075932084122257
aa(lp123
F6.1538545894426768
aF4.3846320966310088
aF4.6075932084122257
aa(lp124
F4.0062782020783629
aa(lp125
F4.3846320966310088
aF4.284161003810425
aF5.4605460413591373
aF6.8495731228179011
aa(lp126
F5.1581023339030452
aF4.3367374636916516
aa(lp127
F4.3220259932367213
aa(lp128
F4.8359141268346164
aa(lp129
F4.8359141268346164
aF5.3827962750684328
aa(lp130
a(lp131
F5.4605460413591373
aa(lp132
a(lp133
a(lp134
F4.1778020354037437
aF4.3312151401798076
aa(lp135
F4.5581457286531872
aa(lp136
F4.1110725617729997
aa(lp137
F4.4346786501365898
aa(lp138
F4.6075932084122257
aa(lp139
a(lp140
F5.3100448386083636
aa(lp141
a(lp142
F4.3367374636916516
aa(lp143
F6.5709441809070341
aF6.1992781877922312
aa(lp144
F4.1778020354037437
aF4.3312151401798076
aa(lp145
F4.9927534854758164
aa(lp146
F5.4605460413591373
aa(lp147
a(lp148
F5.3827962750684328
aa(lp149
F4.2192170571775591
aa(lp150
F4.2192170571775591
aa(lp151
F6.518524926205032
aa(lp152
a(lp153
a(lp154
a(lp155
F5.270496687872896
aa(lp156
F4.3367374636916516
aa(lp157
a(lp158
F6.518524926205032
aa(lp159
a(lp160
a(lp161
a(lp162
a(lp163
a(lp164
a(lp165
a(lp166
a(lp167
a(lp168
a(lp169
a(lp170
a(lp171
a(lp172
a(lp173
a(lp174
a(lp175
a(lp176
a(lp177
a(lp178
a(lp179
a(lp180
a(lp181
a(lp182
a(lp183
a(lp184
a(lp185
a(lp186
a(lp187
atbg1
(g2
(I0
tS'b'
tRp188
(I1
(I179
tg5
I00
S'\x00\x00\x00\x00\x00\xc0\x87@\x00\x00\x00\x00\x00\x90\x86@\x00\x00\x00\x00\x00\x80\x86@\x00\x00\x00\x00\x00`\x95@\x00\x00\x00\x00\x00@\x84@\x00\x00\x00\x00\x00@\x85@\x00\x00\x00\x00\x000\x94@\x00\x00\x00\x00\x00 \x93@\x00\x00\x00\x00\x00\x00\x84@\x00\x00\x00\x00\x00\x00\x93@\x00\x00\x00\x00\x00\x10\x82@\x00\x00\x00\x00\x00\x00\x92@\x00\x00\x00\x00\x00`\x9a@\x00\x00\x00\x00\x00\xd0\x91@\x00\x00\x00\x00\x00\xe0\x90@\x00\x00\x00\x00\x00\x00\x80@\x00\x00\x00\x00\x00\xe0\x8f@\x00\x00\x00\x00\x00\x80\x81@\x00\x00\x00\x00\x00\xa0\x90@\x00\x00\x00\x00\x00\x80\x8f@\x00\x00\x00\x00\x00\x00\x8e@\x00\x00\x00\x00\x00\xc0\x8d@\x00\x00\x00\x00\x00@\x80@\x00\x00\x00\x00\x00x\x96@\x00\x00\x00\x00\x00\x00\x8c@\x00\x00\x00\x00\x00@\x8d@\x00\x00\x00\x00\x00\xa0\x8b@\x00\x00\x00\x00\x00@\x8a@\x00\x00\x00\x00\x00\x00~@\x00\x00\x00\x00\x00@\x9b@\x00\x00\x00\x00\x00\x00\x8b@\x00\x00\x00\x00\x00\x80x@\x00\x00\x00\x00\x00\x80\x89@\x00\x00\x00\x00\x00`\x88@\x00\x00\x00\x00\x00\x00\x88@\x00\x00\x00\x00\x00\x80{@\x00\x00\x00\x00\x00 \x8a@\x00\x00\x00\x00\x00\xc0\x97@\x00\x00\x00\x00\x00\x80\x86@\x00\x00\x00\x00\x00`\x87@\x00\x00\x00\x00\x00\x00\x86@\x00\x00\x00\x00\x00 u@\x00\x00\x00\x00\x00\xc0\x90@\x00\x00\x00\x00\x00\xc0\x87@\x00\x00\x00\x00\x00\x80\x86@\x00\x00\x00\x00\x00\xa0\x84@\x00\x00\x00\x00\x00@\x85@\x00\x00\x00\x00\x00\x80\x83@\x00\x00\x00\x00\x00\x00\x84@\x00\x00\x00\x00\x00@\x83@\x00\x00\x00\x00\x00\x80v@\x00\x00\x00\x00\x00`\x85@\x00\x00\x00\x00\x00\x80\x93@\x00\x00\x00\x00\x00\x00r@\x00\x00\x00\x00\x00\x80\x92@\x00\x00\x00\x00\x00\x80\x81@\x00\x00\x00\x00\x00\x00\x82@\x00\x00\x00\x00\x00\x00t@\x00\x00\x00\x00\x00\xc0\x91@\x00\x00\x00\x00\x00\xe0\x80@\x00\x00\x00\x00\x00\x00\x82@\x00\x00\x00\x00\x00@\x80@\x00\x00\x00\x00\x00\x00\x81@\x00\x00\x00\x00\x00\x80\x7f@\x00\x00\x00\x00\x00\x00\x80@\x00\x00\x00\x00\x00@n@\x00\x00\x00\x00\x00\x00~@\x00\x00\x00\x00\x00\xc0\x87@\x00\x00\x00\x00\x00@\x8f@\x00\x00\x00\x00\x00\x80\x7f@\x00\x00\x00\x00\x00\xc0}@\x00\x00\x00\x00\x00\x00|@\x00\x00\x00\x00\x00\x80{@\x00\x00\x00\x00\x00\x80\x8b@\x00\x00\x00\x00\x00\x00z@\x00\x00\x00\x00\x00@z@\x00\x00\x00\x00\x00\x00n@\x00\x00\x00\x00\x00\x80|@\x00\x00\x00\x00\x00\xc0\x83@\x00\x00\x00\x00\x00\xc0x@\x00\x00\x00\x00\x00\x00\x89@\x00\x00\x00\x00\x00\x00x@\x00\x00\x00\x00\x00\x00x@\x00\x00\x00\x00\x00\xc0v@\x00\x00\x00\x00\x00\x80\x86@\x00\x00\x00\x00\x00@\x81@\x00\x00\x00\x00\x00\xc0w@\x00\x00\x00\x00\x00\x80v@\x00\x00\x00\x00\x00\x00u@\x00\x00\x00\x00\x00\x00u@\x00\x00\x00\x00\x00@u@\x00\x00\x00\x00\x00\x00t@\x00\x00\x00\x00\x00@d@\x00\x00\x00\x00\x00\x00t@\x00\x00\x00\x00\x00\x80s@\x00\x00\x00\x00\x00\x00\x83@\x00\x00\x00\x00\x00\x00d@\x00\x00\x00\x00\x00\x00s@\x00\x00\x00\x00\x00\x00\x82@\x00\x00\x00\x00\x00\x80q@\x00\x00\x00\x00\x00\x80\x81@\x00\x00\x00\x00\x00\x80q@\x00\x00\x00\x00\x00\x00p@\x00\x00\x00\x00\x00@p@\x00\x00\x00\x00\x00\x80p@\x00\x00\x00\x00\x00\x00n@\x00\x00\x00\x00\x00\x00`@\x00\x00\x00\x00\x00\x80v@\x00\x00\x00\x00\x00\x00~@\x00\x00\x00\x00\x00\x00l@\x00\x00\x00\x00\x00\x00k@\x00\x00\x00\x00\x00\x00n@\x00\x00\x00\x00\x00\x80i@\x00\x00\x00\x00\x00\x00y@\x00\x00\x00\x00\x00\x80k@\x00\x00\x00\x00\x00\x00l@\x00\x00\x00\x00\x00\x80f@\x00\x00\x00\x00\x00\x00k@\x00\x00\x00\x00\x00\x00h@\x00\x00\x00\x00\x00\x00T@\x00\x00\x00\x00\x00@\x80@\x00\x00\x00\x00\x00\x00b@\x00\x00\x00\x00\x00\x00a@\x00\x00\x00\x00\x00\x00f@\x00\x00\x00\x00\x00\xc0o@\x00\x00\x00\x00\x00\x00t@\x00\x00\x00\x00\x00\x80f@\x00\x00\x00\x00\x00\x00^@\x00\x00\x00\x00\x00\x00b@\x00\x00\x00\x00\x00\x00d@\x00\x00\x00\x00\x00\x00\\@\x00\x00\x00\x00\x00\x00D@\x00\x00\x00\x00\x00\x00S@\x00\x00\x00\x00\x00\x00n@\x00\x00\x00\x00\x00\x00d@\x00\x00\x00\x00\x00\x00i@\x00\x00\x00\x00\x00\x00Z@\x00\x00\x00\x00\x00\x00j@\x00\x00\x00\x00\x00\x00N@\x00\x00\x00\x00\x00\x00X@\x00\x00\x00\x00\x00\x00^@\x00\x00\x00\x00\x00\x00R@\x00\x00\x00\x00\x00\x80a@\x00\x00\x00\x00\x00\x00L@\x00\x00\x00\x00\x00\x00`@\x00\x00\x00\x00\x00\x00V@\x00\x00\x00\x00\x00\x00d@\x00\x00\x00\x00\x00\x00^@\x00\x00\x00\x00\x00\x00T@\x00\x00\x00\x00\x00\x00d@\x00\x00\x00\x00\x00\x00X@\x00\x00\x00\x00\x00\x00F@\x00\x00\x00\x00\x00\x00R@\x00\x00\x00\x00\x00\x00I@\x00\x00\x00\x00\x00\x00X@\x00\x00\x00\x00\x00\x00U@\x00\x00\x00\x00\x00\x00D@\x00\x00\x00\x00\x00\x00P@\x00\x00\x00\x00\x00\x00T@\x00\x00\x00\x00\x00\x00B@\x00\x00\x00\x00\x00\x00R@\x00\x00\x00\x00\x00\x00L@\x00\x00\x00\x00\x00\x00@@\x00\x00\x00\x00\x00\x00@@\x00\x00\x00\x00\x00\x00N@\x00\x00\x00\x00\x00\x00H@\x00\x00\x00\x00\x00\x00<@\x00\x00\x00\x00\x00\x00H@\x00\x00\x00\x00\x00\x00D@\x00\x00\x00\x00\x00\x008@\x00\x00\x00\x00\x00\x002@\x00\x00\x00\x00\x00\x00@@\x00\x00\x00\x00\x00\x004@\x00\x00\x00\x00\x00\x008@\x00\x00\x00\x00\x00\x000@\x00\x00\x00\x00\x00\x00 @\x00\x00\x00\x00\x00\x00(@\x00\x00\x00\x00\x00\x00 @\x00\x00\x00\x00\x00\x00\x00@'
tbg1
(g2
(I0
tS'b'
tRp189
(I1
(I400
I3
tg4
(S'i8'
I0
I1
tRp190
(I3
S'<'
NNNI-1
I-1
I0
tbI00
S'\xcc\x01\x00\x00\x00\x00\x00\x00\xcc\x01\x00\x00\x00\x00\x00\x00\x00\x00\x00\x00\x00\x00\x00\x00\xcc\x01\x00\x00\x00\x00\x00\x00\xce\x01\x00\x00\x00\x00\x00\x00\x00\x00\x00\x00\x00\x00\x00\x00\xcc\x01\x00\x00\x00\x00\x00\x00\xd0\x01\x00\x00\x00\x00\x00\x00\x00\x00\x00\x00\x00\x00\x00\x00\xcc\x01\x00\x00\x00\x00\x00\x00\xd2\x01\x00\x00\x00\x00\x00\x00\x00\x00\x00\x00\x00\x00\x00\x00\xcc\x01\x00\x00\x00\x00\x00\x00\xd4\x01\x00\x00\x00\x00\x00\x00\x00\x00\x00\x00\x00\x00\x00\x00\xcc\x01\x00\x00\x00\x00\x00\x00\xd6\x01\x00\x00\x00\x00\x00\x00\x00\x00\x00\x00\x00\x00\x00\x00\xcc\x01\x00\x00\x00\x00\x00\x00\xd8\x01\x00\x00\x00\x00\x00\x00\x00\x00\x00\x00\x00\x00\x00\x00\xcc\x01\x00\x00\x00\x00\x00\x00\xda\x01\x00\x00\x00\x00\x00\x00\x00\x00\x00\x00\x00\x00\x00\x00\xcc\x01\x00\x00\x00\x00\x00\x00\xdc\x01\x00\x00\x00\x00\x00\x00\x00\x00\x00\x00\x00\x00\x00\x00\xcc\x01\x00\x00\x00\x00\x00\x00\xde\x01\x00\x00\x00\x00\x00\x00\x00\x00\x00\x00\x00\x00\x00\x00\xcc\x01\x00\x00\x00\x00\x00\x00\xe0\x01\x00\x00\x00\x00\x00\x00\x00\x00\x00\x00\x00\x00\x00\x00\xcc\x01\x00\x00\x00\x00\x00\x00\xe2\x01\x00\x00\x00\x00\x00\x00\x00\x00\x00\x00\x00\x00\x00\x00\xcc\x01\x00\x00\x00\x00\x00\x00\xe4\x01\x00\x00\x00\x00\x00\x00\x00\x00\x00\x00\x00\x00\x00\x00\xcc\x01\x00\x00\x00\x00\x00\x00\xe6\x01\x00\x00\x00\x00\x00\x00\x00\x00\x00\x00\x00\x00\x00\x00\xcc\x01\x00\x00\x00\x00\x00\x00\xe8\x01\x00\x00\x00\x00\x00\x00\x00\x00\x00\x00\x00\x00\x00\x00\xcc\x01\x00\x00\x00\x00\x00\x00\xea\x01\x00\x00\x00\x00\x00\x00\x00\x00\x00\x00\x00\x00\x00\x00\xcc\x01\x00\x00\x00\x00\x00\x00\xec\x01\x00\x00\x00\x00\x00\x00\x00\x00\x00\x00\x00\x00\x00\x00\xcc\x01\x00\x00\x00\x00\x00\x00\xee\x01\x00\x00\x00\x00\x00\x00\x00\x00\x00\x00\x00\x00\x00\x00\xcc\x01\x00\x00\x00\x00\x00\x00\xf0\x01\x00\x00\x00\x00\x00\x00\x00\x00\x00\x00\x00\x00\x00\x00\xcc\x01\x00\x00\x00\x00\x00\x00\xf2\x01\x00\x00\x00\x00\x00\x00\x00\x00\x00\x00\x00\x00\x00\x00\xce\x01\x00\x00\x00\x00\x00\x00\xcc\x01\x00\x00\x00\x00\x00\x00\x00\x00\x00\x00\x00\x00\x00\x00\xce\x01\x00\x00\x00\x00\x00\x00\xce\x01\x00\x00\x00\x00\x00\x00\x00\x00\x00\x00\x00\x00\x00\x00\xce\x01\x00\x00\x00\x00\x00\x00\xd0\x01\x00\x00\x00\x00\x00\x00\x00\x00\x00\x00\x00\x00\x00\x00\xce\x01\x00\x00\x00\x00\x00\x00\xd2\x01\x00\x00\x00\x00\x00\x00\x00\x00\x00\x00\x00\x00\x00\x00\xce\x01\x00\x00\x00\x00\x00\x00\xd4\x01\x00\x00\x00\x00\x00\x00\x00\x00\x00\x00\x00\x00\x00\x00\xce\x01\x00\x00\x00\x00\x00\x00\xd6\x01\x00\x00\x00\x00\x00\x00\x00\x00\x00\x00\x00\x00\x00\x00\xce\x01\x00\x00\x00\x00\x00\x00\xd8\x01\x00\x00\x00\x00\x00\x00\x00\x00\x00\x00\x00\x00\x00\x00\xce\x01\x00\x00\x00\x00\x00\x00\xda\x01\x00\x00\x00\x00\x00\x00\x00\x00\x00\x00\x00\x00\x00\x00\xce\x01\x00\x00\x00\x00\x00\x00\xdc\x01\x00\x00\x00\x00\x00\x00\x00\x00\x00\x00\x00\x00\x00\x00\xce\x01\x00\x00\x00\x00\x00\x00\xde\x01\x00\x00\x00\x00\x00\x00\x00\x00\x00\x00\x00\x00\x00\x00\xce\x01\x00\x00\x00\x00\x00\x00\xe0\x01\x00\x00\x00\x00\x00\x00\x00\x00\x00\x00\x00\x00\x00\x00\xce\x01\x00\x00\x00\x00\x00\x00\xe2\x01\x00\x00\x00\x00\x00\x00\x00\x00\x00\x00\x00\x00\x00\x00\xce\x01\x00\x00\x00\x00\x00\x00\xe4\x01\x00\x00\x00\x00\x00\x00\x00\x00\x00\x00\x00\x00\x00\x00\xce\x01\x00\x00\x00\x00\x00\x00\xe6\x01\x00\x00\x00\x00\x00\x00\x00\x00\x00\x00\x00\x00\x00\x00\xce\x01\x00\x00\x00\x00\x00\x00\xe8\x01\x00\x00\x00\x00\x00\x00\x00\x00\x00\x00\x00\x00\x00\x00\xce\x01\x00\x00\x00\x00\x00\x00\xea\x01\x00\x00\x00\x00\x00\x00\x00\x00\x00\x00\x00\x00\x00\x00\xce\x01\x00\x00\x00\x00\x00\x00\xec\x01\x00\x00\x00\x00\x00\x00\x00\x00\x00\x00\x00\x00\x00\x00\xce\x01\x00\x00\x00\x00\x00\x00\xee\x01\x00\x00\x00\x00\x00\x00\x00\x00\x00\x00\x00\x00\x00\x00\xce\x01\x00\x00\x00\x00\x00\x00\xf0\x01\x00\x00\x00\x00\x00\x00\x00\x00\x00\x00\x00\x00\x00\x00\xce\x01\x00\x00\x00\x00\x00\x00\xf2\x01\x00\x00\x00\x00\x00\x00\x00\x00\x00\x00\x00\x00\x00\x00\xd0\x01\x00\x00\x00\x00\x00\x00\xcc\x01\x00\x00\x00\x00\x00\x00\x00\x00\x00\x00\x00\x00\x00\x00\xd0\x01\x00\x00\x00\x00\x00\x00\xce\x01\x00\x00\x00\x00\x00\x00\x00\x00\x00\x00\x00\x00\x00\x00\xd0\x01\x00\x00\x00\x00\x00\x00\xd0\x01\x00\x00\x00\x00\x00\x00\x00\x00\x00\x00\x00\x00\x00\x00\xd0\x01\x00\x00\x00\x00\x00\x00\xd2\x01\x00\x00\x00\x00\x00\x00\x00\x00\x00\x00\x00\x00\x00\x00\xd0\x01\x00\x00\x00\x00\x00\x00\xd4\x01\x00\x00\x00\x00\x00\x00\x00\x00\x00\x00\x00\x00\x00\x00\xd0\x01\x00\x00\x00\x00\x00\x00\xd6\x01\x00\x00\x00\x00\x00\x00\x00\x00\x00\x00\x00\x00\x00\x00\xd0\x01\x00\x00\x00\x00\x00\x00\xd8\x01\x00\x00\x00\x00\x00\x00\x00\x00\x00\x00\x00\x00\x00\x00\xd0\x01\x00\x00\x00\x00\x00\x00\xda\x01\x00\x00\x00\x00\x00\x00\x00\x00\x00\x00\x00\x00\x00\x00\xd0\x01\x00\x00\x00\x00\x00\x00\xdc\x01\x00\x00\x00\x00\x00\x00\x00\x00\x00\x00\x00\x00\x00\x00\xd0\x01\x00\x00\x00\x00\x00\x00\xde\x01\x00\x00\x00\x00\x00\x00\x00\x00\x00\x00\x00\x00\x00\x00\xd0\x01\x00\x00\x00\x00\x00\x00\xe0\x01\x00\x00\x00\x00\x00\x00\x00\x00\x00\x00\x00\x00\x00\x00\xd0\x01\x00\x00\x00\x00\x00\x00\xe2\x01\x00\x00\x00\x00\x00\x00\x00\x00\x00\x00\x00\x00\x00\x00\xd0\x01\x00\x00\x00\x00\x00\x00\xe4\x01\x00\x00\x00\x00\x00\x00\x00\x00\x00\x00\x00\x00\x00\x00\xd0\x01\x00\x00\x00\x00\x00\x00\xe6\x01\x00\x00\x00\x00\x00\x00\x00\x00\x00\x00\x00\x00\x00\x00\xd0\x01\x00\x00\x00\x00\x00\x00\xe8\x01\x00\x00\x00\x00\x00\x00\x00\x00\x00\x00\x00\x00\x00\x00\xd0\x01\x00\x00\x00\x00\x00\x00\xea\x01\x00\x00\x00\x00\x00\x00\x00\x00\x00\x00\x00\x00\x00\x00\xd0\x01\x00\x00\x00\x00\x00\x00\xec\x01\x00\x00\x00\x00\x00\x00\x00\x00\x00\x00\x00\x00\x00\x00\xd0\x01\x00\x00\x00\x00\x00\x00\xee\x01\x00\x00\x00\x00\x00\x00\x00\x00\x00\x00\x00\x00\x00\x00\xd0\x01\x00\x00\x00\x00\x00\x00\xf0\x01\x00\x00\x00\x00\x00\x00\x00\x00\x00\x00\x00\x00\x00\x00\xd0\x01\x00\x00\x00\x00\x00\x00\xf2\x01\x00\x00\x00\x00\x00\x00\x00\x00\x00\x00\x00\x00\x00\x00\xd2\x01\x00\x00\x00\x00\x00\x00\xcc\x01\x00\x00\x00\x00\x00\x00\x00\x00\x00\x00\x00\x00\x00\x00\xd2\x01\x00\x00\x00\x00\x00\x00\xce\x01\x00\x00\x00\x00\x00\x00\x00\x00\x00\x00\x00\x00\x00\x00\xd2\x01\x00\x00\x00\x00\x00\x00\xd0\x01\x00\x00\x00\x00\x00\x00\x00\x00\x00\x00\x00\x00\x00\x00\xd2\x01\x00\x00\x00\x00\x00\x00\xd2\x01\x00\x00\x00\x00\x00\x00\x00\x00\x00\x00\x00\x00\x00\x00\xd2\x01\x00\x00\x00\x00\x00\x00\xd4\x01\x00\x00\x00\x00\x00\x00\x00\x00\x00\x00\x00\x00\x00\x00\xd2\x01\x00\x00\x00\x00\x00\x00\xd6\x01\x00\x00\x00\x00\x00\x00\x00\x00\x00\x00\x00\x00\x00\x00\xd2\x01\x00\x00\x00\x00\x00\x00\xd8\x01\x00\x00\x00\x00\x00\x00\x00\x00\x00\x00\x00\x00\x00\x00\xd2\x01\x00\x00\x00\x00\x00\x00\xda\x01\x00\x00\x00\x00\x00\x00\x00\x00\x00\x00\x00\x00\x00\x00\xd2\x01\x00\x00\x00\x00\x00\x00\xdc\x01\x00\x00\x00\x00\x00\x00\x00\x00\x00\x00\x00\x00\x00\x00\xd2\x01\x00\x00\x00\x00\x00\x00\xde\x01\x00\x00\x00\x00\x00\x00\x00\x00\x00\x00\x00\x00\x00\x00\xd2\x01\x00\x00\x00\x00\x00\x00\xe0\x01\x00\x00\x00\x00\x00\x00\x00\x00\x00\x00\x00\x00\x00\x00\xd2\x01\x00\x00\x00\x00\x00\x00\xe2\x01\x00\x00\x00\x00\x00\x00\x00\x00\x00\x00\x00\x00\x00\x00\xd2\x01\x00\x00\x00\x00\x00\x00\xe4\x01\x00\x00\x00\x00\x00\x00\x00\x00\x00\x00\x00\x00\x00\x00\xd2\x01\x00\x00\x00\x00\x00\x00\xe6\x01\x00\x00\x00\x00\x00\x00\x00\x00\x00\x00\x00\x00\x00\x00\xd2\x01\x00\x00\x00\x00\x00\x00\xe8\x01\x00\x00\x00\x00\x00\x00\x00\x00\x00\x00\x00\x00\x00\x00\xd2\x01\x00\x00\x00\x00\x00\x00\xea\x01\x00\x00\x00\x00\x00\x00\x00\x00\x00\x00\x00\x00\x00\x00\xd2\x01\x00\x00\x00\x00\x00\x00\xec\x01\x00\x00\x00\x00\x00\x00\x00\x00\x00\x00\x00\x00\x00\x00\xd2\x01\x00\x00\x00\x00\x00\x00\xee\x01\x00\x00\x00\x00\x00\x00\x00\x00\x00\x00\x00\x00\x00\x00\xd2\x01\x00\x00\x00\x00\x00\x00\xf0\x01\x00\x00\x00\x00\x00\x00\x00\x00\x00\x00\x00\x00\x00\x00\xd2\x01\x00\x00\x00\x00\x00\x00\xf2\x01\x00\x00\x00\x00\x00\x00\x00\x00\x00\x00\x00\x00\x00\x00\xd4\x01\x00\x00\x00\x00\x00\x00\xcc\x01\x00\x00\x00\x00\x00\x00\x00\x00\x00\x00\x00\x00\x00\x00\xd4\x01\x00\x00\x00\x00\x00\x00\xce\x01\x00\x00\x00\x00\x00\x00\x00\x00\x00\x00\x00\x00\x00\x00\xd4\x01\x00\x00\x00\x00\x00\x00\xd0\x01\x00\x00\x00\x00\x00\x00\x00\x00\x00\x00\x00\x00\x00\x00\xd4\x01\x00\x00\x00\x00\x00\x00\xd2\x01\x00\x00\x00\x00\x00\x00\x00\x00\x00\x00\x00\x00\x00\x00\xd4\x01\x00\x00\x00\x00\x00\x00\xd4\x01\x00\x00\x00\x00\x00\x00\x00\x00\x00\x00\x00\x00\x00\x00\xd4\x01\x00\x00\x00\x00\x00\x00\xd6\x01\x00\x00\x00\x00\x00\x00\x00\x00\x00\x00\x00\x00\x00\x00\xd4\x01\x00\x00\x00\x00\x00\x00\xd8\x01\x00\x00\x00\x00\x00\x00\x00\x00\x00\x00\x00\x00\x00\x00\xd4\x01\x00\x00\x00\x00\x00\x00\xda\x01\x00\x00\x00\x00\x00\x00\x00\x00\x00\x00\x00\x00\x00\x00\xd4\x01\x00\x00\x00\x00\x00\x00\xdc\x01\x00\x00\x00\x00\x00\x00\x00\x00\x00\x00\x00\x00\x00\x00\xd4\x01\x00\x00\x00\x00\x00\x00\xde\x01\x00\x00\x00\x00\x00\x00\x00\x00\x00\x00\x00\x00\x00\x00\xd4\x01\x00\x00\x00\x00\x00\x00\xe0\x01\x00\x00\x00\x00\x00\x00\x00\x00\x00\x00\x00\x00\x00\x00\xd4\x01\x00\x00\x00\x00\x00\x00\xe2\x01\x00\x00\x00\x00\x00\x00\x00\x00\x00\x00\x00\x00\x00\x00\xd4\x01\x00\x00\x00\x00\x00\x00\xe4\x01\x00\x00\x00\x00\x00\x00\x00\x00\x00\x00\x00\x00\x00\x00\xd4\x01\x00\x00\x00\x00\x00\x00\xe6\x01\x00\x00\x00\x00\x00\x00\x00\x00\x00\x00\x00\x00\x00\x00\xd4\x01\x00\x00\x00\x00\x00\x00\xe8\x01\x00\x00\x00\x00\x00\x00\x00\x00\x00\x00\x00\x00\x00\x00\xd4\x01\x00\x00\x00\x00\x00\x00\xea\x01\x00\x00\x00\x00\x00\x00\x00\x00\x00\x00\x00\x00\x00\x00\xd4\x01\x00\x00\x00\x00\x00\x00\xec\x01\x00\x00\x00\x00\x00\x00\x00\x00\x00\x00\x00\x00\x00\x00\xd4\x01\x00\x00\x00\x00\x00\x00\xee\x01\x00\x00\x00\x00\x00\x00\x00\x00\x00\x00\x00\x00\x00\x00\xd4\x01\x00\x00\x00\x00\x00\x00\xf0\x01\x00\x00\x00\x00\x00\x00\x00\x00\x00\x00\x00\x00\x00\x00\xd4\x01\x00\x00\x00\x00\x00\x00\xf2\x01\x00\x00\x00\x00\x00\x00\x00\x00\x00\x00\x00\x00\x00\x00\xd6\x01\x00\x00\x00\x00\x00\x00\xcc\x01\x00\x00\x00\x00\x00\x00\x00\x00\x00\x00\x00\x00\x00\x00\xd6\x01\x00\x00\x00\x00\x00\x00\xce\x01\x00\x00\x00\x00\x00\x00\x00\x00\x00\x00\x00\x00\x00\x00\xd6\x01\x00\x00\x00\x00\x00\x00\xd0\x01\x00\x00\x00\x00\x00\x00\x00\x00\x00\x00\x00\x00\x00\x00\xd6\x01\x00\x00\x00\x00\x00\x00\xd2\x01\x00\x00\x00\x00\x00\x00\x00\x00\x00\x00\x00\x00\x00\x00\xd6\x01\x00\x00\x00\x00\x00\x00\xd4\x01\x00\x00\x00\x00\x00\x00\x00\x00\x00\x00\x00\x00\x00\x00\xd6\x01\x00\x00\x00\x00\x00\x00\xd6\x01\x00\x00\x00\x00\x00\x00\x00\x00\x00\x00\x00\x00\x00\x00\xd6\x01\x00\x00\x00\x00\x00\x00\xd8\x01\x00\x00\x00\x00\x00\x00\x00\x00\x00\x00\x00\x00\x00\x00\xd6\x01\x00\x00\x00\x00\x00\x00\xda\x01\x00\x00\x00\x00\x00\x00\x00\x00\x00\x00\x00\x00\x00\x00\xd6\x01\x00\x00\x00\x00\x00\x00\xdc\x01\x00\x00\x00\x00\x00\x00\x00\x00\x00\x00\x00\x00\x00\x00\xd6\x01\x00\x00\x00\x00\x00\x00\xde\x01\x00\x00\x00\x00\x00\x00\x00\x00\x00\x00\x00\x00\x00\x00\xd6\x01\x00\x00\x00\x00\x00\x00\xe0\x01\x00\x00\x00\x00\x00\x00\x00\x00\x00\x00\x00\x00\x00\x00\xd6\x01\x00\x00\x00\x00\x00\x00\xe2\x01\x00\x00\x00\x00\x00\x00\x00\x00\x00\x00\x00\x00\x00\x00\xd6\x01\x00\x00\x00\x00\x00\x00\xe4\x01\x00\x00\x00\x00\x00\x00\x00\x00\x00\x00\x00\x00\x00\x00\xd6\x01\x00\x00\x00\x00\x00\x00\xe6\x01\x00\x00\x00\x00\x00\x00\x00\x00\x00\x00\x00\x00\x00\x00\xd6\x01\x00\x00\x00\x00\x00\x00\xe8\x01\x00\x00\x00\x00\x00\x00\x00\x00\x00\x00\x00\x00\x00\x00\xd6\x01\x00\x00\x00\x00\x00\x00\xea\x01\x00\x00\x00\x00\x00\x00\x00\x00\x00\x00\x00\x00\x00\x00\xd6\x01\x00\x00\x00\x00\x00\x00\xec\x01\x00\x00\x00\x00\x00\x00\x00\x00\x00\x00\x00\x00\x00\x00\xd6\x01\x00\x00\x00\x00\x00\x00\xee\x01\x00\x00\x00\x00\x00\x00\x00\x00\x00\x00\x00\x00\x00\x00\xd6\x01\x00\x00\x00\x00\x00\x00\xf0\x01\x00\x00\x00\x00\x00\x00\x00\x00\x00\x00\x00\x00\x00\x00\xd6\x01\x00\x00\x00\x00\x00\x00\xf2\x01\x00\x00\x00\x00\x00\x00\x00\x00\x00\x00\x00\x00\x00\x00\xd8\x01\x00\x00\x00\x00\x00\x00\xcc\x01\x00\x00\x00\x00\x00\x00\x00\x00\x00\x00\x00\x00\x00\x00\xd8\x01\x00\x00\x00\x00\x00\x00\xce\x01\x00\x00\x00\x00\x00\x00\x00\x00\x00\x00\x00\x00\x00\x00\xd8\x01\x00\x00\x00\x00\x00\x00\xd0\x01\x00\x00\x00\x00\x00\x00\x00\x00\x00\x00\x00\x00\x00\x00\xd8\x01\x00\x00\x00\x00\x00\x00\xd2\x01\x00\x00\x00\x00\x00\x00\x00\x00\x00\x00\x00\x00\x00\x00\xd8\x01\x00\x00\x00\x00\x00\x00\xd4\x01\x00\x00\x00\x00\x00\x00\x00\x00\x00\x00\x00\x00\x00\x00\xd8\x01\x00\x00\x00\x00\x00\x00\xd6\x01\x00\x00\x00\x00\x00\x00\x00\x00\x00\x00\x00\x00\x00\x00\xd8\x01\x00\x00\x00\x00\x00\x00\xd8\x01\x00\x00\x00\x00\x00\x00\x00\x00\x00\x00\x00\x00\x00\x00\xd8\x01\x00\x00\x00\x00\x00\x00\xda\x01\x00\x00\x00\x00\x00\x00\x00\x00\x00\x00\x00\x00\x00\x00\xd8\x01\x00\x00\x00\x00\x00\x00\xdc\x01\x00\x00\x00\x00\x00\x00\x00\x00\x00\x00\x00\x00\x00\x00\xd8\x01\x00\x00\x00\x00\x00\x00\xde\x01\x00\x00\x00\x00\x00\x00\x00\x00\x00\x00\x00\x00\x00\x00\xd8\x01\x00\x00\x00\x00\x00\x00\xe0\x01\x00\x00\x00\x00\x00\x00\x00\x00\x00\x00\x00\x00\x00\x00\xd8\x01\x00\x00\x00\x00\x00\x00\xe2\x01\x00\x00\x00\x00\x00\x00\x00\x00\x00\x00\x00\x00\x00\x00\xd8\x01\x00\x00\x00\x00\x00\x00\xe4\x01\x00\x00\x00\x00\x00\x00\x00\x00\x00\x00\x00\x00\x00\x00\xd8\x01\x00\x00\x00\x00\x00\x00\xe6\x01\x00\x00\x00\x00\x00\x00\x00\x00\x00\x00\x00\x00\x00\x00\xd8\x01\x00\x00\x00\x00\x00\x00\xe8\x01\x00\x00\x00\x00\x00\x00\x00\x00\x00\x00\x00\x00\x00\x00\xd8\x01\x00\x00\x00\x00\x00\x00\xea\x01\x00\x00\x00\x00\x00\x00\x00\x00\x00\x00\x00\x00\x00\x00\xd8\x01\x00\x00\x00\x00\x00\x00\xec\x01\x00\x00\x00\x00\x00\x00\x00\x00\x00\x00\x00\x00\x00\x00\xd8\x01\x00\x00\x00\x00\x00\x00\xee\x01\x00\x00\x00\x00\x00\x00\x00\x00\x00\x00\x00\x00\x00\x00\xd8\x01\x00\x00\x00\x00\x00\x00\xf0\x01\x00\x00\x00\x00\x00\x00\x00\x00\x00\x00\x00\x00\x00\x00\xd8\x01\x00\x00\x00\x00\x00\x00\xf2\x01\x00\x00\x00\x00\x00\x00\x00\x00\x00\x00\x00\x00\x00\x00\xda\x01\x00\x00\x00\x00\x00\x00\xcc\x01\x00\x00\x00\x00\x00\x00\x00\x00\x00\x00\x00\x00\x00\x00\xda\x01\x00\x00\x00\x00\x00\x00\xce\x01\x00\x00\x00\x00\x00\x00\x00\x00\x00\x00\x00\x00\x00\x00\xda\x01\x00\x00\x00\x00\x00\x00\xd0\x01\x00\x00\x00\x00\x00\x00\x00\x00\x00\x00\x00\x00\x00\x00\xda\x01\x00\x00\x00\x00\x00\x00\xd2\x01\x00\x00\x00\x00\x00\x00\x00\x00\x00\x00\x00\x00\x00\x00\xda\x01\x00\x00\x00\x00\x00\x00\xd4\x01\x00\x00\x00\x00\x00\x00\x00\x00\x00\x00\x00\x00\x00\x00\xda\x01\x00\x00\x00\x00\x00\x00\xd6\x01\x00\x00\x00\x00\x00\x00\x00\x00\x00\x00\x00\x00\x00\x00\xda\x01\x00\x00\x00\x00\x00\x00\xd8\x01\x00\x00\x00\x00\x00\x00\x00\x00\x00\x00\x00\x00\x00\x00\xda\x01\x00\x00\x00\x00\x00\x00\xda\x01\x00\x00\x00\x00\x00\x00\x00\x00\x00\x00\x00\x00\x00\x00\xda\x01\x00\x00\x00\x00\x00\x00\xdc\x01\x00\x00\x00\x00\x00\x00\x00\x00\x00\x00\x00\x00\x00\x00\xda\x01\x00\x00\x00\x00\x00\x00\xde\x01\x00\x00\x00\x00\x00\x00\x00\x00\x00\x00\x00\x00\x00\x00\xda\x01\x00\x00\x00\x00\x00\x00\xe0\x01\x00\x00\x00\x00\x00\x00\x00\x00\x00\x00\x00\x00\x00\x00\xda\x01\x00\x00\x00\x00\x00\x00\xe2\x01\x00\x00\x00\x00\x00\x00\x00\x00\x00\x00\x00\x00\x00\x00\xda\x01\x00\x00\x00\x00\x00\x00\xe4\x01\x00\x00\x00\x00\x00\x00\x00\x00\x00\x00\x00\x00\x00\x00\xda\x01\x00\x00\x00\x00\x00\x00\xe6\x01\x00\x00\x00\x00\x00\x00\x00\x00\x00\x00\x00\x00\x00\x00\xda\x01\x00\x00\x00\x00\x00\x00\xe8\x01\x00\x00\x00\x00\x00\x00\x00\x00\x00\x00\x00\x00\x00\x00\xda\x01\x00\x00\x00\x00\x00\x00\xea\x01\x00\x00\x00\x00\x00\x00\x00\x00\x00\x00\x00\x00\x00\x00\xda\x01\x00\x00\x00\x00\x00\x00\xec\x01\x00\x00\x00\x00\x00\x00\x00\x00\x00\x00\x00\x00\x00\x00\xda\x01\x00\x00\x00\x00\x00\x00\xee\x01\x00\x00\x00\x00\x00\x00\x00\x00\x00\x00\x00\x00\x00\x00\xda\x01\x00\x00\x00\x00\x00\x00\xf0\x01\x00\x00\x00\x00\x00\x00\x00\x00\x00\x00\x00\x00\x00\x00\xda\x01\x00\x00\x00\x00\x00\x00\xf2\x01\x00\x00\x00\x00\x00\x00\x00\x00\x00\x00\x00\x00\x00\x00\xdc\x01\x00\x00\x00\x00\x00\x00\xcc\x01\x00\x00\x00\x00\x00\x00\x00\x00\x00\x00\x00\x00\x00\x00\xdc\x01\x00\x00\x00\x00\x00\x00\xce\x01\x00\x00\x00\x00\x00\x00\x00\x00\x00\x00\x00\x00\x00\x00\xdc\x01\x00\x00\x00\x00\x00\x00\xd0\x01\x00\x00\x00\x00\x00\x00\x00\x00\x00\x00\x00\x00\x00\x00\xdc\x01\x00\x00\x00\x00\x00\x00\xd2\x01\x00\x00\x00\x00\x00\x00\x00\x00\x00\x00\x00\x00\x00\x00\xdc\x01\x00\x00\x00\x00\x00\x00\xd4\x01\x00\x00\x00\x00\x00\x00\x00\x00\x00\x00\x00\x00\x00\x00\xdc\x01\x00\x00\x00\x00\x00\x00\xd6\x01\x00\x00\x00\x00\x00\x00\x00\x00\x00\x00\x00\x00\x00\x00\xdc\x01\x00\x00\x00\x00\x00\x00\xd8\x01\x00\x00\x00\x00\x00\x00\x00\x00\x00\x00\x00\x00\x00\x00\xdc\x01\x00\x00\x00\x00\x00\x00\xda\x01\x00\x00\x00\x00\x00\x00\x00\x00\x00\x00\x00\x00\x00\x00\xdc\x01\x00\x00\x00\x00\x00\x00\xdc\x01\x00\x00\x00\x00\x00\x00\x00\x00\x00\x00\x00\x00\x00\x00\xdc\x01\x00\x00\x00\x00\x00\x00\xde\x01\x00\x00\x00\x00\x00\x00\x00\x00\x00\x00\x00\x00\x00\x00\xdc\x01\x00\x00\x00\x00\x00\x00\xe0\x01\x00\x00\x00\x00\x00\x00\x00\x00\x00\x00\x00\x00\x00\x00\xdc\x01\x00\x00\x00\x00\x00\x00\xe2\x01\x00\x00\x00\x00\x00\x00\x00\x00\x00\x00\x00\x00\x00\x00\xdc\x01\x00\x00\x00\x00\x00\x00\xe4\x01\x00\x00\x00\x00\x00\x00\x00\x00\x00\x00\x00\x00\x00\x00\xdc\x01\x00\x00\x00\x00\x00\x00\xe6\x01\x00\x00\x00\x00\x00\x00\x00\x00\x00\x00\x00\x00\x00\x00\xdc\x01\x00\x00\x00\x00\x00\x00\xe8\x01\x00\x00\x00\x00\x00\x00\x00\x00\x00\x00\x00\x00\x00\x00\xdc\x01\x00\x00\x00\x00\x00\x00\xea\x01\x00\x00\x00\x00\x00\x00\x00\x00\x00\x00\x00\x00\x00\x00\xdc\x01\x00\x00\x00\x00\x00\x00\xec\x01\x00\x00\x00\x00\x00\x00\x00\x00\x00\x00\x00\x00\x00\x00\xdc\x01\x00\x00\x00\x00\x00\x00\xee\x01\x00\x00\x00\x00\x00\x00\x00\x00\x00\x00\x00\x00\x00\x00\xdc\x01\x00\x00\x00\x00\x00\x00\xf0\x01\x00\x00\x00\x00\x00\x00\x00\x00\x00\x00\x00\x00\x00\x00\xdc\x01\x00\x00\x00\x00\x00\x00\xf2\x01\x00\x00\x00\x00\x00\x00\x00\x00\x00\x00\x00\x00\x00\x00\xde\x01\x00\x00\x00\x00\x00\x00\xcc\x01\x00\x00\x00\x00\x00\x00\x00\x00\x00\x00\x00\x00\x00\x00\xde\x01\x00\x00\x00\x00\x00\x00\xce\x01\x00\x00\x00\x00\x00\x00\x00\x00\x00\x00\x00\x00\x00\x00\xde\x01\x00\x00\x00\x00\x00\x00\xd0\x01\x00\x00\x00\x00\x00\x00\x00\x00\x00\x00\x00\x00\x00\x00\xde\x01\x00\x00\x00\x00\x00\x00\xd2\x01\x00\x00\x00\x00\x00\x00\x00\x00\x00\x00\x00\x00\x00\x00\xde\x01\x00\x00\x00\x00\x00\x00\xd4\x01\x00\x00\x00\x00\x00\x00\x00\x00\x00\x00\x00\x00\x00\x00\xde\x01\x00\x00\x00\x00\x00\x00\xd6\x01\x00\x00\x00\x00\x00\x00\x00\x00\x00\x00\x00\x00\x00\x00\xde\x01\x00\x00\x00\x00\x00\x00\xd8\x01\x00\x00\x00\x00\x00\x00\x00\x00\x00\x00\x00\x00\x00\x00\xde\x01\x00\x00\x00\x00\x00\x00\xda\x01\x00\x00\x00\x00\x00\x00\x00\x00\x00\x00\x00\x00\x00\x00\xde\x01\x00\x00\x00\x00\x00\x00\xdc\x01\x00\x00\x00\x00\x00\x00\x00\x00\x00\x00\x00\x00\x00\x00\xde\x01\x00\x00\x00\x00\x00\x00\xde\x01\x00\x00\x00\x00\x00\x00\x00\x00\x00\x00\x00\x00\x00\x00\xde\x01\x00\x00\x00\x00\x00\x00\xe0\x01\x00\x00\x00\x00\x00\x00\x00\x00\x00\x00\x00\x00\x00\x00\xde\x01\x00\x00\x00\x00\x00\x00\xe2\x01\x00\x00\x00\x00\x00\x00\x00\x00\x00\x00\x00\x00\x00\x00\xde\x01\x00\x00\x00\x00\x00\x00\xe4\x01\x00\x00\x00\x00\x00\x00\x00\x00\x00\x00\x00\x00\x00\x00\xde\x01\x00\x00\x00\x00\x00\x00\xe6\x01\x00\x00\x00\x00\x00\x00\x00\x00\x00\x00\x00\x00\x00\x00\xde\x01\x00\x00\x00\x00\x00\x00\xe8\x01\x00\x00\x00\x00\x00\x00\x00\x00\x00\x00\x00\x00\x00\x00\xde\x01\x00\x00\x00\x00\x00\x00\xea\x01\x00\x00\x00\x00\x00\x00\x00\x00\x00\x00\x00\x00\x00\x00\xde\x01\x00\x00\x00\x00\x00\x00\xec\x01\x00\x00\x00\x00\x00\x00\x00\x00\x00\x00\x00\x00\x00\x00\xde\x01\x00\x00\x00\x00\x00\x00\xee\x01\x00\x00\x00\x00\x00\x00\x00\x00\x00\x00\x00\x00\x00\x00\xde\x01\x00\x00\x00\x00\x00\x00\xf0\x01\x00\x00\x00\x00\x00\x00\x00\x00\x00\x00\x00\x00\x00\x00\xde\x01\x00\x00\x00\x00\x00\x00\xf2\x01\x00\x00\x00\x00\x00\x00\x00\x00\x00\x00\x00\x00\x00\x00\xe0\x01\x00\x00\x00\x00\x00\x00\xcc\x01\x00\x00\x00\x00\x00\x00\x00\x00\x00\x00\x00\x00\x00\x00\xe0\x01\x00\x00\x00\x00\x00\x00\xce\x01\x00\x00\x00\x00\x00\x00\x00\x00\x00\x00\x00\x00\x00\x00\xe0\x01\x00\x00\x00\x00\x00\x00\xd0\x01\x00\x00\x00\x00\x00\x00\x00\x00\x00\x00\x00\x00\x00\x00\xe0\x01\x00\x00\x00\x00\x00\x00\xd2\x01\x00\x00\x00\x00\x00\x00\x00\x00\x00\x00\x00\x00\x00\x00\xe0\x01\x00\x00\x00\x00\x00\x00\xd4\x01\x00\x00\x00\x00\x00\x00\x00\x00\x00\x00\x00\x00\x00\x00\xe0\x01\x00\x00\x00\x00\x00\x00\xd6\x01\x00\x00\x00\x00\x00\x00\x00\x00\x00\x00\x00\x00\x00\x00\xe0\x01\x00\x00\x00\x00\x00\x00\xd8\x01\x00\x00\x00\x00\x00\x00\x00\x00\x00\x00\x00\x00\x00\x00\xe0\x01\x00\x00\x00\x00\x00\x00\xda\x01\x00\x00\x00\x00\x00\x00\x00\x00\x00\x00\x00\x00\x00\x00\xe0\x01\x00\x00\x00\x00\x00\x00\xdc\x01\x00\x00\x00\x00\x00\x00\x00\x00\x00\x00\x00\x00\x00\x00\xe0\x01\x00\x00\x00\x00\x00\x00\xde\x01\x00\x00\x00\x00\x00\x00\x00\x00\x00\x00\x00\x00\x00\x00\xe0\x01\x00\x00\x00\x00\x00\x00\xe0\x01\x00\x00\x00\x00\x00\x00\x00\x00\x00\x00\x00\x00\x00\x00\xe0\x01\x00\x00\x00\x00\x00\x00\xe2\x01\x00\x00\x00\x00\x00\x00\x00\x00\x00\x00\x00\x00\x00\x00\xe0\x01\x00\x00\x00\x00\x00\x00\xe4\x01\x00\x00\x00\x00\x00\x00\x00\x00\x00\x00\x00\x00\x00\x00\xe0\x01\x00\x00\x00\x00\x00\x00\xe6\x01\x00\x00\x00\x00\x00\x00\x00\x00\x00\x00\x00\x00\x00\x00\xe0\x01\x00\x00\x00\x00\x00\x00\xe8\x01\x00\x00\x00\x00\x00\x00\x00\x00\x00\x00\x00\x00\x00\x00\xe0\x01\x00\x00\x00\x00\x00\x00\xea\x01\x00\x00\x00\x00\x00\x00\x00\x00\x00\x00\x00\x00\x00\x00\xe0\x01\x00\x00\x00\x00\x00\x00\xec\x01\x00\x00\x00\x00\x00\x00\x00\x00\x00\x00\x00\x00\x00\x00\xe0\x01\x00\x00\x00\x00\x00\x00\xee\x01\x00\x00\x00\x00\x00\x00\x00\x00\x00\x00\x00\x00\x00\x00\xe0\x01\x00\x00\x00\x00\x00\x00\xf0\x01\x00\x00\x00\x00\x00\x00\x00\x00\x00\x00\x00\x00\x00\x00\xe0\x01\x00\x00\x00\x00\x00\x00\xf2\x01\x00\x00\x00\x00\x00\x00\x00\x00\x00\x00\x00\x00\x00\x00\xe2\x01\x00\x00\x00\x00\x00\x00\xcc\x01\x00\x00\x00\x00\x00\x00\x00\x00\x00\x00\x00\x00\x00\x00\xe2\x01\x00\x00\x00\x00\x00\x00\xce\x01\x00\x00\x00\x00\x00\x00\x00\x00\x00\x00\x00\x00\x00\x00\xe2\x01\x00\x00\x00\x00\x00\x00\xd0\x01\x00\x00\x00\x00\x00\x00\x00\x00\x00\x00\x00\x00\x00\x00\xe2\x01\x00\x00\x00\x00\x00\x00\xd2\x01\x00\x00\x00\x00\x00\x00\x00\x00\x00\x00\x00\x00\x00\x00\xe2\x01\x00\x00\x00\x00\x00\x00\xd4\x01\x00\x00\x00\x00\x00\x00\x00\x00\x00\x00\x00\x00\x00\x00\xe2\x01\x00\x00\x00\x00\x00\x00\xd6\x01\x00\x00\x00\x00\x00\x00\x00\x00\x00\x00\x00\x00\x00\x00\xe2\x01\x00\x00\x00\x00\x00\x00\xd8\x01\x00\x00\x00\x00\x00\x00\x00\x00\x00\x00\x00\x00\x00\x00\xe2\x01\x00\x00\x00\x00\x00\x00\xda\x01\x00\x00\x00\x00\x00\x00\x00\x00\x00\x00\x00\x00\x00\x00\xe2\x01\x00\x00\x00\x00\x00\x00\xdc\x01\x00\x00\x00\x00\x00\x00\x00\x00\x00\x00\x00\x00\x00\x00\xe2\x01\x00\x00\x00\x00\x00\x00\xde\x01\x00\x00\x00\x00\x00\x00\x00\x00\x00\x00\x00\x00\x00\x00\xe2\x01\x00\x00\x00\x00\x00\x00\xe0\x01\x00\x00\x00\x00\x00\x00\x00\x00\x00\x00\x00\x00\x00\x00\xe2\x01\x00\x00\x00\x00\x00\x00\xe2\x01\x00\x00\x00\x00\x00\x00\x00\x00\x00\x00\x00\x00\x00\x00\xe2\x01\x00\x00\x00\x00\x00\x00\xe4\x01\x00\x00\x00\x00\x00\x00\x00\x00\x00\x00\x00\x00\x00\x00\xe2\x01\x00\x00\x00\x00\x00\x00\xe6\x01\x00\x00\x00\x00\x00\x00\x00\x00\x00\x00\x00\x00\x00\x00\xe2\x01\x00\x00\x00\x00\x00\x00\xe8\x01\x00\x00\x00\x00\x00\x00\x00\x00\x00\x00\x00\x00\x00\x00\xe2\x01\x00\x00\x00\x00\x00\x00\xea\x01\x00\x00\x00\x00\x00\x00\x00\x00\x00\x00\x00\x00\x00\x00\xe2\x01\x00\x00\x00\x00\x00\x00\xec\x01\x00\x00\x00\x00\x00\x00\x00\x00\x00\x00\x00\x00\x00\x00\xe2\x01\x00\x00\x00\x00\x00\x00\xee\x01\x00\x00\x00\x00\x00\x00\x00\x00\x00\x00\x00\x00\x00\x00\xe2\x01\x00\x00\x00\x00\x00\x00\xf0\x01\x00\x00\x00\x00\x00\x00\x00\x00\x00\x00\x00\x00\x00\x00\xe2\x01\x00\x00\x00\x00\x00\x00\xf2\x01\x00\x00\x00\x00\x00\x00\x00\x00\x00\x00\x00\x00\x00\x00\xe4\x01\x00\x00\x00\x00\x00\x00\xcc\x01\x00\x00\x00\x00\x00\x00\x00\x00\x00\x00\x00\x00\x00\x00\xe4\x01\x00\x00\x00\x00\x00\x00\xce\x01\x00\x00\x00\x00\x00\x00\x00\x00\x00\x00\x00\x00\x00\x00\xe4\x01\x00\x00\x00\x00\x00\x00\xd0\x01\x00\x00\x00\x00\x00\x00\x00\x00\x00\x00\x00\x00\x00\x00\xe4\x01\x00\x00\x00\x00\x00\x00\xd2\x01\x00\x00\x00\x00\x00\x00\x00\x00\x00\x00\x00\x00\x00\x00\xe4\x01\x00\x00\x00\x00\x00\x00\xd4\x01\x00\x00\x00\x00\x00\x00\x00\x00\x00\x00\x00\x00\x00\x00\xe4\x01\x00\x00\x00\x00\x00\x00\xd6\x01\x00\x00\x00\x00\x00\x00\x00\x00\x00\x00\x00\x00\x00\x00\xe4\x01\x00\x00\x00\x00\x00\x00\xd8\x01\x00\x00\x00\x00\x00\x00\x00\x00\x00\x00\x00\x00\x00\x00\xe4\x01\x00\x00\x00\x00\x00\x00\xda\x01\x00\x00\x00\x00\x00\x00\x00\x00\x00\x00\x00\x00\x00\x00\xe4\x01\x00\x00\x00\x00\x00\x00\xdc\x01\x00\x00\x00\x00\x00\x00\x00\x00\x00\x00\x00\x00\x00\x00\xe4\x01\x00\x00\x00\x00\x00\x00\xde\x01\x00\x00\x00\x00\x00\x00\x00\x00\x00\x00\x00\x00\x00\x00\xe4\x01\x00\x00\x00\x00\x00\x00\xe0\x01\x00\x00\x00\x00\x00\x00\x00\x00\x00\x00\x00\x00\x00\x00\xe4\x01\x00\x00\x00\x00\x00\x00\xe2\x01\x00\x00\x00\x00\x00\x00\x00\x00\x00\x00\x00\x00\x00\x00\xe4\x01\x00\x00\x00\x00\x00\x00\xe4\x01\x00\x00\x00\x00\x00\x00\x00\x00\x00\x00\x00\x00\x00\x00\xe4\x01\x00\x00\x00\x00\x00\x00\xe6\x01\x00\x00\x00\x00\x00\x00\x00\x00\x00\x00\x00\x00\x00\x00\xe4\x01\x00\x00\x00\x00\x00\x00\xe8\x01\x00\x00\x00\x00\x00\x00\x00\x00\x00\x00\x00\x00\x00\x00\xe4\x01\x00\x00\x00\x00\x00\x00\xea\x01\x00\x00\x00\x00\x00\x00\x00\x00\x00\x00\x00\x00\x00\x00\xe4\x01\x00\x00\x00\x00\x00\x00\xec\x01\x00\x00\x00\x00\x00\x00\x00\x00\x00\x00\x00\x00\x00\x00\xe4\x01\x00\x00\x00\x00\x00\x00\xee\x01\x00\x00\x00\x00\x00\x00\x00\x00\x00\x00\x00\x00\x00\x00\xe4\x01\x00\x00\x00\x00\x00\x00\xf0\x01\x00\x00\x00\x00\x00\x00\x00\x00\x00\x00\x00\x00\x00\x00\xe4\x01\x00\x00\x00\x00\x00\x00\xf2\x01\x00\x00\x00\x00\x00\x00\x00\x00\x00\x00\x00\x00\x00\x00\xe6\x01\x00\x00\x00\x00\x00\x00\xcc\x01\x00\x00\x00\x00\x00\x00\x00\x00\x00\x00\x00\x00\x00\x00\xe6\x01\x00\x00\x00\x00\x00\x00\xce\x01\x00\x00\x00\x00\x00\x00\x00\x00\x00\x00\x00\x00\x00\x00\xe6\x01\x00\x00\x00\x00\x00\x00\xd0\x01\x00\x00\x00\x00\x00\x00\x00\x00\x00\x00\x00\x00\x00\x00\xe6\x01\x00\x00\x00\x00\x00\x00\xd2\x01\x00\x00\x00\x00\x00\x00\x00\x00\x00\x00\x00\x00\x00\x00\xe6\x01\x00\x00\x00\x00\x00\x00\xd4\x01\x00\x00\x00\x00\x00\x00\x00\x00\x00\x00\x00\x00\x00\x00\xe6\x01\x00\x00\x00\x00\x00\x00\xd6\x01\x00\x00\x00\x00\x00\x00\x00\x00\x00\x00\x00\x00\x00\x00\xe6\x01\x00\x00\x00\x00\x00\x00\xd8\x01\x00\x00\x00\x00\x00\x00\x00\x00\x00\x00\x00\x00\x00\x00\xe6\x01\x00\x00\x00\x00\x00\x00\xda\x01\x00\x00\x00\x00\x00\x00\x00\x00\x00\x00\x00\x00\x00\x00\xe6\x01\x00\x00\x00\x00\x00\x00\xdc\x01\x00\x00\x00\x00\x00\x00\x00\x00\x00\x00\x00\x00\x00\x00\xe6\x01\x00\x00\x00\x00\x00\x00\xde\x01\x00\x00\x00\x00\x00\x00\x00\x00\x00\x00\x00\x00\x00\x00\xe6\x01\x00\x00\x00\x00\x00\x00\xe0\x01\x00\x00\x00\x00\x00\x00\x00\x00\x00\x00\x00\x00\x00\x00\xe6\x01\x00\x00\x00\x00\x00\x00\xe2\x01\x00\x00\x00\x00\x00\x00\x00\x00\x00\x00\x00\x00\x00\x00\xe6\x01\x00\x00\x00\x00\x00\x00\xe4\x01\x00\x00\x00\x00\x00\x00\x00\x00\x00\x00\x00\x00\x00\x00\xe6\x01\x00\x00\x00\x00\x00\x00\xe6\x01\x00\x00\x00\x00\x00\x00\x00\x00\x00\x00\x00\x00\x00\x00\xe6\x01\x00\x00\x00\x00\x00\x00\xe8\x01\x00\x00\x00\x00\x00\x00\x00\x00\x00\x00\x00\x00\x00\x00\xe6\x01\x00\x00\x00\x00\x00\x00\xea\x01\x00\x00\x00\x00\x00\x00\x00\x00\x00\x00\x00\x00\x00\x00\xe6\x01\x00\x00\x00\x00\x00\x00\xec\x01\x00\x00\x00\x00\x00\x00\x00\x00\x00\x00\x00\x00\x00\x00\xe6\x01\x00\x00\x00\x00\x00\x00\xee\x01\x00\x00\x00\x00\x00\x00\x00\x00\x00\x00\x00\x00\x00\x00\xe6\x01\x00\x00\x00\x00\x00\x00\xf0\x01\x00\x00\x00\x00\x00\x00\x00\x00\x00\x00\x00\x00\x00\x00\xe6\x01\x00\x00\x00\x00\x00\x00\xf2\x01\x00\x00\x00\x00\x00\x00\x00\x00\x00\x00\x00\x00\x00\x00\xe8\x01\x00\x00\x00\x00\x00\x00\xcc\x01\x00\x00\x00\x00\x00\x00\x00\x00\x00\x00\x00\x00\x00\x00\xe8\x01\x00\x00\x00\x00\x00\x00\xce\x01\x00\x00\x00\x00\x00\x00\x00\x00\x00\x00\x00\x00\x00\x00\xe8\x01\x00\x00\x00\x00\x00\x00\xd0\x01\x00\x00\x00\x00\x00\x00\x00\x00\x00\x00\x00\x00\x00\x00\xe8\x01\x00\x00\x00\x00\x00\x00\xd2\x01\x00\x00\x00\x00\x00\x00\x00\x00\x00\x00\x00\x00\x00\x00\xe8\x01\x00\x00\x00\x00\x00\x00\xd4\x01\x00\x00\x00\x00\x00\x00\x00\x00\x00\x00\x00\x00\x00\x00\xe8\x01\x00\x00\x00\x00\x00\x00\xd6\x01\x00\x00\x00\x00\x00\x00\x00\x00\x00\x00\x00\x00\x00\x00\xe8\x01\x00\x00\x00\x00\x00\x00\xd8\x01\x00\x00\x00\x00\x00\x00\x00\x00\x00\x00\x00\x00\x00\x00\xe8\x01\x00\x00\x00\x00\x00\x00\xda\x01\x00\x00\x00\x00\x00\x00\x00\x00\x00\x00\x00\x00\x00\x00\xe8\x01\x00\x00\x00\x00\x00\x00\xdc\x01\x00\x00\x00\x00\x00\x00\x00\x00\x00\x00\x00\x00\x00\x00\xe8\x01\x00\x00\x00\x00\x00\x00\xde\x01\x00\x00\x00\x00\x00\x00\x00\x00\x00\x00\x00\x00\x00\x00\xe8\x01\x00\x00\x00\x00\x00\x00\xe0\x01\x00\x00\x00\x00\x00\x00\x00\x00\x00\x00\x00\x00\x00\x00\xe8\x01\x00\x00\x00\x00\x00\x00\xe2\x01\x00\x00\x00\x00\x00\x00\x00\x00\x00\x00\x00\x00\x00\x00\xe8\x01\x00\x00\x00\x00\x00\x00\xe4\x01\x00\x00\x00\x00\x00\x00\x00\x00\x00\x00\x00\x00\x00\x00\xe8\x01\x00\x00\x00\x00\x00\x00\xe6\x01\x00\x00\x00\x00\x00\x00\x00\x00\x00\x00\x00\x00\x00\x00\xe8\x01\x00\x00\x00\x00\x00\x00\xe8\x01\x00\x00\x00\x00\x00\x00\x00\x00\x00\x00\x00\x00\x00\x00\xe8\x01\x00\x00\x00\x00\x00\x00\xea\x01\x00\x00\x00\x00\x00\x00\x00\x00\x00\x00\x00\x00\x00\x00\xe8\x01\x00\x00\x00\x00\x00\x00\xec\x01\x00\x00\x00\x00\x00\x00\x00\x00\x00\x00\x00\x00\x00\x00\xe8\x01\x00\x00\x00\x00\x00\x00\xee\x01\x00\x00\x00\x00\x00\x00\x00\x00\x00\x00\x00\x00\x00\x00\xe8\x01\x00\x00\x00\x00\x00\x00\xf0\x01\x00\x00\x00\x00\x00\x00\x00\x00\x00\x00\x00\x00\x00\x00\xe8\x01\x00\x00\x00\x00\x00\x00\xf2\x01\x00\x00\x00\x00\x00\x00\x00\x00\x00\x00\x00\x00\x00\x00\xea\x01\x00\x00\x00\x00\x00\x00\xcc\x01\x00\x00\x00\x00\x00\x00\x00\x00\x00\x00\x00\x00\x00\x00\xea\x01\x00\x00\x00\x00\x00\x00\xce\x01\x00\x00\x00\x00\x00\x00\x00\x00\x00\x00\x00\x00\x00\x00\xea\x01\x00\x00\x00\x00\x00\x00\xd0\x01\x00\x00\x00\x00\x00\x00\x00\x00\x00\x00\x00\x00\x00\x00\xea\x01\x00\x00\x00\x00\x00\x00\xd2\x01\x00\x00\x00\x00\x00\x00\x00\x00\x00\x00\x00\x00\x00\x00\xea\x01\x00\x00\x00\x00\x00\x00\xd4\x01\x00\x00\x00\x00\x00\x00\x00\x00\x00\x00\x00\x00\x00\x00\xea\x01\x00\x00\x00\x00\x00\x00\xd6\x01\x00\x00\x00\x00\x00\x00\x00\x00\x00\x00\x00\x00\x00\x00\xea\x01\x00\x00\x00\x00\x00\x00\xd8\x01\x00\x00\x00\x00\x00\x00\x00\x00\x00\x00\x00\x00\x00\x00\xea\x01\x00\x00\x00\x00\x00\x00\xda\x01\x00\x00\x00\x00\x00\x00\x00\x00\x00\x00\x00\x00\x00\x00\xea\x01\x00\x00\x00\x00\x00\x00\xdc\x01\x00\x00\x00\x00\x00\x00\x00\x00\x00\x00\x00\x00\x00\x00\xea\x01\x00\x00\x00\x00\x00\x00\xde\x01\x00\x00\x00\x00\x00\x00\x00\x00\x00\x00\x00\x00\x00\x00\xea\x01\x00\x00\x00\x00\x00\x00\xe0\x01\x00\x00\x00\x00\x00\x00\x00\x00\x00\x00\x00\x00\x00\x00\xea\x01\x00\x00\x00\x00\x00\x00\xe2\x01\x00\x00\x00\x00\x00\x00\x00\x00\x00\x00\x00\x00\x00\x00\xea\x01\x00\x00\x00\x00\x00\x00\xe4\x01\x00\x00\x00\x00\x00\x00\x00\x00\x00\x00\x00\x00\x00\x00\xea\x01\x00\x00\x00\x00\x00\x00\xe6\x01\x00\x00\x00\x00\x00\x00\x00\x00\x00\x00\x00\x00\x00\x00\xea\x01\x00\x00\x00\x00\x00\x00\xe8\x01\x00\x00\x00\x00\x00\x00\x00\x00\x00\x00\x00\x00\x00\x00\xea\x01\x00\x00\x00\x00\x00\x00\xea\x01\x00\x00\x00\x00\x00\x00\x00\x00\x00\x00\x00\x00\x00\x00\xea\x01\x00\x00\x00\x00\x00\x00\xec\x01\x00\x00\x00\x00\x00\x00\x00\x00\x00\x00\x00\x00\x00\x00\xea\x01\x00\x00\x00\x00\x00\x00\xee\x01\x00\x00\x00\x00\x00\x00\x00\x00\x00\x00\x00\x00\x00\x00\xea\x01\x00\x00\x00\x00\x00\x00\xf0\x01\x00\x00\x00\x00\x00\x00\x00\x00\x00\x00\x00\x00\x00\x00\xea\x01\x00\x00\x00\x00\x00\x00\xf2\x01\x00\x00\x00\x00\x00\x00\x00\x00\x00\x00\x00\x00\x00\x00\xec\x01\x00\x00\x00\x00\x00\x00\xcc\x01\x00\x00\x00\x00\x00\x00\x00\x00\x00\x00\x00\x00\x00\x00\xec\x01\x00\x00\x00\x00\x00\x00\xce\x01\x00\x00\x00\x00\x00\x00\x00\x00\x00\x00\x00\x00\x00\x00\xec\x01\x00\x00\x00\x00\x00\x00\xd0\x01\x00\x00\x00\x00\x00\x00\x00\x00\x00\x00\x00\x00\x00\x00\xec\x01\x00\x00\x00\x00\x00\x00\xd2\x01\x00\x00\x00\x00\x00\x00\x00\x00\x00\x00\x00\x00\x00\x00\xec\x01\x00\x00\x00\x00\x00\x00\xd4\x01\x00\x00\x00\x00\x00\x00\x00\x00\x00\x00\x00\x00\x00\x00\xec\x01\x00\x00\x00\x00\x00\x00\xd6\x01\x00\x00\x00\x00\x00\x00\x00\x00\x00\x00\x00\x00\x00\x00\xec\x01\x00\x00\x00\x00\x00\x00\xd8\x01\x00\x00\x00\x00\x00\x00\x00\x00\x00\x00\x00\x00\x00\x00\xec\x01\x00\x00\x00\x00\x00\x00\xda\x01\x00\x00\x00\x00\x00\x00\x00\x00\x00\x00\x00\x00\x00\x00\xec\x01\x00\x00\x00\x00\x00\x00\xdc\x01\x00\x00\x00\x00\x00\x00\x00\x00\x00\x00\x00\x00\x00\x00\xec\x01\x00\x00\x00\x00\x00\x00\xde\x01\x00\x00\x00\x00\x00\x00\x00\x00\x00\x00\x00\x00\x00\x00\xec\x01\x00\x00\x00\x00\x00\x00\xe0\x01\x00\x00\x00\x00\x00\x00\x00\x00\x00\x00\x00\x00\x00\x00\xec\x01\x00\x00\x00\x00\x00\x00\xe2\x01\x00\x00\x00\x00\x00\x00\x00\x00\x00\x00\x00\x00\x00\x00\xec\x01\x00\x00\x00\x00\x00\x00\xe4\x01\x00\x00\x00\x00\x00\x00\x00\x00\x00\x00\x00\x00\x00\x00\xec\x01\x00\x00\x00\x00\x00\x00\xe6\x01\x00\x00\x00\x00\x00\x00\x00\x00\x00\x00\x00\x00\x00\x00\xec\x01\x00\x00\x00\x00\x00\x00\xe8\x01\x00\x00\x00\x00\x00\x00\x00\x00\x00\x00\x00\x00\x00\x00\xec\x01\x00\x00\x00\x00\x00\x00\xea\x01\x00\x00\x00\x00\x00\x00\x00\x00\x00\x00\x00\x00\x00\x00\xec\x01\x00\x00\x00\x00\x00\x00\xec\x01\x00\x00\x00\x00\x00\x00\x00\x00\x00\x00\x00\x00\x00\x00\xec\x01\x00\x00\x00\x00\x00\x00\xee\x01\x00\x00\x00\x00\x00\x00\x00\x00\x00\x00\x00\x00\x00\x00\xec\x01\x00\x00\x00\x00\x00\x00\xf0\x01\x00\x00\x00\x00\x00\x00\x00\x00\x00\x00\x00\x00\x00\x00\xec\x01\x00\x00\x00\x00\x00\x00\xf2\x01\x00\x00\x00\x00\x00\x00\x00\x00\x00\x00\x00\x00\x00\x00\xee\x01\x00\x00\x00\x00\x00\x00\xcc\x01\x00\x00\x00\x00\x00\x00\x00\x00\x00\x00\x00\x00\x00\x00\xee\x01\x00\x00\x00\x00\x00\x00\xce\x01\x00\x00\x00\x00\x00\x00\x00\x00\x00\x00\x00\x00\x00\x00\xee\x01\x00\x00\x00\x00\x00\x00\xd0\x01\x00\x00\x00\x00\x00\x00\x00\x00\x00\x00\x00\x00\x00\x00\xee\x01\x00\x00\x00\x00\x00\x00\xd2\x01\x00\x00\x00\x00\x00\x00\x00\x00\x00\x00\x00\x00\x00\x00\xee\x01\x00\x00\x00\x00\x00\x00\xd4\x01\x00\x00\x00\x00\x00\x00\x00\x00\x00\x00\x00\x00\x00\x00\xee\x01\x00\x00\x00\x00\x00\x00\xd6\x01\x00\x00\x00\x00\x00\x00\x00\x00\x00\x00\x00\x00\x00\x00\xee\x01\x00\x00\x00\x00\x00\x00\xd8\x01\x00\x00\x00\x00\x00\x00\x00\x00\x00\x00\x00\x00\x00\x00\xee\x01\x00\x00\x00\x00\x00\x00\xda\x01\x00\x00\x00\x00\x00\x00\x00\x00\x00\x00\x00\x00\x00\x00\xee\x01\x00\x00\x00\x00\x00\x00\xdc\x01\x00\x00\x00\x00\x00\x00\x00\x00\x00\x00\x00\x00\x00\x00\xee\x01\x00\x00\x00\x00\x00\x00\xde\x01\x00\x00\x00\x00\x00\x00\x00\x00\x00\x00\x00\x00\x00\x00\xee\x01\x00\x00\x00\x00\x00\x00\xe0\x01\x00\x00\x00\x00\x00\x00\x00\x00\x00\x00\x00\x00\x00\x00\xee\x01\x00\x00\x00\x00\x00\x00\xe2\x01\x00\x00\x00\x00\x00\x00\x00\x00\x00\x00\x00\x00\x00\x00\xee\x01\x00\x00\x00\x00\x00\x00\xe4\x01\x00\x00\x00\x00\x00\x00\x00\x00\x00\x00\x00\x00\x00\x00\xee\x01\x00\x00\x00\x00\x00\x00\xe6\x01\x00\x00\x00\x00\x00\x00\x00\x00\x00\x00\x00\x00\x00\x00\xee\x01\x00\x00\x00\x00\x00\x00\xe8\x01\x00\x00\x00\x00\x00\x00\x00\x00\x00\x00\x00\x00\x00\x00\xee\x01\x00\x00\x00\x00\x00\x00\xea\x01\x00\x00\x00\x00\x00\x00\x00\x00\x00\x00\x00\x00\x00\x00\xee\x01\x00\x00\x00\x00\x00\x00\xec\x01\x00\x00\x00\x00\x00\x00\x00\x00\x00\x00\x00\x00\x00\x00\xee\x01\x00\x00\x00\x00\x00\x00\xee\x01\x00\x00\x00\x00\x00\x00\x00\x00\x00\x00\x00\x00\x00\x00\xee\x01\x00\x00\x00\x00\x00\x00\xf0\x01\x00\x00\x00\x00\x00\x00\x00\x00\x00\x00\x00\x00\x00\x00\xee\x01\x00\x00\x00\x00\x00\x00\xf2\x01\x00\x00\x00\x00\x00\x00\x00\x00\x00\x00\x00\x00\x00\x00\xf0\x01\x00\x00\x00\x00\x00\x00\xcc\x01\x00\x00\x00\x00\x00\x00\x00\x00\x00\x00\x00\x00\x00\x00\xf0\x01\x00\x00\x00\x00\x00\x00\xce\x01\x00\x00\x00\x00\x00\x00\x00\x00\x00\x00\x00\x00\x00\x00\xf0\x01\x00\x00\x00\x00\x00\x00\xd0\x01\x00\x00\x00\x00\x00\x00\x00\x00\x00\x00\x00\x00\x00\x00\xf0\x01\x00\x00\x00\x00\x00\x00\xd2\x01\x00\x00\x00\x00\x00\x00\x00\x00\x00\x00\x00\x00\x00\x00\xf0\x01\x00\x00\x00\x00\x00\x00\xd4\x01\x00\x00\x00\x00\x00\x00\x00\x00\x00\x00\x00\x00\x00\x00\xf0\x01\x00\x00\x00\x00\x00\x00\xd6\x01\x00\x00\x00\x00\x00\x00\x00\x00\x00\x00\x00\x00\x00\x00\xf0\x01\x00\x00\x00\x00\x00\x00\xd8\x01\x00\x00\x00\x00\x00\x00\x00\x00\x00\x00\x00\x00\x00\x00\xf0\x01\x00\x00\x00\x00\x00\x00\xda\x01\x00\x00\x00\x00\x00\x00\x00\x00\x00\x00\x00\x00\x00\x00\xf0\x01\x00\x00\x00\x00\x00\x00\xdc\x01\x00\x00\x00\x00\x00\x00\x00\x00\x00\x00\x00\x00\x00\x00\xf0\x01\x00\x00\x00\x00\x00\x00\xde\x01\x00\x00\x00\x00\x00\x00\x00\x00\x00\x00\x00\x00\x00\x00\xf0\x01\x00\x00\x00\x00\x00\x00\xe0\x01\x00\x00\x00\x00\x00\x00\x00\x00\x00\x00\x00\x00\x00\x00\xf0\x01\x00\x00\x00\x00\x00\x00\xe2\x01\x00\x00\x00\x00\x00\x00\x00\x00\x00\x00\x00\x00\x00\x00\xf0\x01\x00\x00\x00\x00\x00\x00\xe4\x01\x00\x00\x00\x00\x00\x00\x00\x00\x00\x00\x00\x00\x00\x00\xf0\x01\x00\x00\x00\x00\x00\x00\xe6\x01\x00\x00\x00\x00\x00\x00\x00\x00\x00\x00\x00\x00\x00\x00\xf0\x01\x00\x00\x00\x00\x00\x00\xe8\x01\x00\x00\x00\x00\x00\x00\x00\x00\x00\x00\x00\x00\x00\x00\xf0\x01\x00\x00\x00\x00\x00\x00\xea\x01\x00\x00\x00\x00\x00\x00\x00\x00\x00\x00\x00\x00\x00\x00\xf0\x01\x00\x00\x00\x00\x00\x00\xec\x01\x00\x00\x00\x00\x00\x00\x00\x00\x00\x00\x00\x00\x00\x00\xf0\x01\x00\x00\x00\x00\x00\x00\xee\x01\x00\x00\x00\x00\x00\x00\x00\x00\x00\x00\x00\x00\x00\x00\xf0\x01\x00\x00\x00\x00\x00\x00\xf0\x01\x00\x00\x00\x00\x00\x00\x00\x00\x00\x00\x00\x00\x00\x00\xf0\x01\x00\x00\x00\x00\x00\x00\xf2\x01\x00\x00\x00\x00\x00\x00\x00\x00\x00\x00\x00\x00\x00\x00\xf2\x01\x00\x00\x00\x00\x00\x00\xcc\x01\x00\x00\x00\x00\x00\x00\x00\x00\x00\x00\x00\x00\x00\x00\xf2\x01\x00\x00\x00\x00\x00\x00\xce\x01\x00\x00\x00\x00\x00\x00\x00\x00\x00\x00\x00\x00\x00\x00\xf2\x01\x00\x00\x00\x00\x00\x00\xd0\x01\x00\x00\x00\x00\x00\x00\x00\x00\x00\x00\x00\x00\x00\x00\xf2\x01\x00\x00\x00\x00\x00\x00\xd2\x01\x00\x00\x00\x00\x00\x00\x00\x00\x00\x00\x00\x00\x00\x00\xf2\x01\x00\x00\x00\x00\x00\x00\xd4\x01\x00\x00\x00\x00\x00\x00\x00\x00\x00\x00\x00\x00\x00\x00\xf2\x01\x00\x00\x00\x00\x00\x00\xd6\x01\x00\x00\x00\x00\x00\x00\x00\x00\x00\x00\x00\x00\x00\x00\xf2\x01\x00\x00\x00\x00\x00\x00\xd8\x01\x00\x00\x00\x00\x00\x00\x00\x00\x00\x00\x00\x00\x00\x00\xf2\x01\x00\x00\x00\x00\x00\x00\xda\x01\x00\x00\x00\x00\x00\x00\x00\x00\x00\x00\x00\x00\x00\x00\xf2\x01\x00\x00\x00\x00\x00\x00\xdc\x01\x00\x00\x00\x00\x00\x00\x00\x00\x00\x00\x00\x00\x00\x00\xf2\x01\x00\x00\x00\x00\x00\x00\xde\x01\x00\x00\x00\x00\x00\x00\x00\x00\x00\x00\x00\x00\x00\x00\xf2\x01\x00\x00\x00\x00\x00\x00\xe0\x01\x00\x00\x00\x00\x00\x00\x00\x00\x00\x00\x00\x00\x00\x00\xf2\x01\x00\x00\x00\x00\x00\x00\xe2\x01\x00\x00\x00\x00\x00\x00\x00\x00\x00\x00\x00\x00\x00\x00\xf2\x01\x00\x00\x00\x00\x00\x00\xe4\x01\x00\x00\x00\x00\x00\x00\x00\x00\x00\x00\x00\x00\x00\x00\xf2\x01\x00\x00\x00\x00\x00\x00\xe6\x01\x00\x00\x00\x00\x00\x00\x00\x00\x00\x00\x00\x00\x00\x00\xf2\x01\x00\x00\x00\x00\x00\x00\xe8\x01\x00\x00\x00\x00\x00\x00\x00\x00\x00\x00\x00\x00\x00\x00\xf2\x01\x00\x00\x00\x00\x00\x00\xea\x01\x00\x00\x00\x00\x00\x00\x00\x00\x00\x00\x00\x00\x00\x00\xf2\x01\x00\x00\x00\x00\x00\x00\xec\x01\x00\x00\x00\x00\x00\x00\x00\x00\x00\x00\x00\x00\x00\x00\xf2\x01\x00\x00\x00\x00\x00\x00\xee\x01\x00\x00\x00\x00\x00\x00\x00\x00\x00\x00\x00\x00\x00\x00\xf2\x01\x00\x00\x00\x00\x00\x00\xf0\x01\x00\x00\x00\x00\x00\x00\x00\x00\x00\x00\x00\x00\x00\x00\xf2\x01\x00\x00\x00\x00\x00\x00\xf2\x01\x00\x00\x00\x00\x00\x00\x00\x00\x00\x00\x00\x00\x00\x00'
tbtp191
.